---
triple:          'arm64-apple-darwin'
binary-path:     PCludcmp
relocations:
  - { offsetInCU: 0xCF, offset: 0xCF, size: 0x8, addend: 0x0, symName: __ZSt23__is_constant_evaluatedv, symObjAddr: 0x0, symBinAddr: 0x100003E28, symSize: 0x8 }
  - { offsetInCU: 0x10FD1, offset: 0x10FD1, size: 0x8, addend: 0x0, symName: __ZN5EigenL7DynamicE, symObjAddr: 0x4E40, symBinAddr: 0x100009710, symSize: 0x0 }
  - { offsetInCU: 0x10FF0, offset: 0x10FF0, size: 0x8, addend: 0x0, symName: __ZN5EigenL12DynamicIndexE, symObjAddr: 0x4E44, symBinAddr: 0x100009714, symSize: 0x0 }
  - { offsetInCU: 0x11007, offset: 0x11007, size: 0x8, addend: 0x0, symName: __ZN5EigenL9UndefinedE, symObjAddr: 0x4E48, symBinAddr: 0x100009718, symSize: 0x0 }
  - { offsetInCU: 0x11020, offset: 0x11020, size: 0x8, addend: 0x0, symName: __ZN5EigenL8InfinityE, symObjAddr: 0x4E4C, symBinAddr: 0x10000971C, symSize: 0x0 }
  - { offsetInCU: 0x1103A, offset: 0x1103A, size: 0x8, addend: 0x0, symName: __ZN5EigenL8HugeCostE, symObjAddr: 0x4E50, symBinAddr: 0x100009720, symSize: 0x0 }
  - { offsetInCU: 0x11057, offset: 0x11057, size: 0x8, addend: 0x0, symName: __ZN5EigenL11RowMajorBitE, symObjAddr: 0x4E54, symBinAddr: 0x100009724, symSize: 0x0 }
  - { offsetInCU: 0x1107A, offset: 0x1107A, size: 0x8, addend: 0x0, symName: __ZN5EigenL20EvalBeforeNestingBitE, symObjAddr: 0x4E58, symBinAddr: 0x100009728, symSize: 0x0 }
  - { offsetInCU: 0x11096, offset: 0x11096, size: 0x8, addend: 0x0, symName: __ZN5EigenL22EvalBeforeAssigningBitE, symObjAddr: 0x4E5C, symBinAddr: 0x10000972C, symSize: 0x0 }
  - { offsetInCU: 0x110A9, offset: 0x110A9, size: 0x8, addend: 0x0, symName: __ZN5EigenL15PacketAccessBitE, symObjAddr: 0x4E60, symBinAddr: 0x100009730, symSize: 0x0 }
  - { offsetInCU: 0x110C9, offset: 0x110C9, size: 0x8, addend: 0x0, symName: __ZN5EigenL21ActualPacketAccessBitE, symObjAddr: 0x4E64, symBinAddr: 0x100009734, symSize: 0x0 }
  - { offsetInCU: 0x110DD, offset: 0x110DD, size: 0x8, addend: 0x0, symName: __ZN5EigenL15LinearAccessBitE, symObjAddr: 0x4E68, symBinAddr: 0x100009738, symSize: 0x0 }
  - { offsetInCU: 0x110F1, offset: 0x110F1, size: 0x8, addend: 0x0, symName: __ZN5EigenL9LvalueBitE, symObjAddr: 0x4E6C, symBinAddr: 0x10000973C, symSize: 0x0 }
  - { offsetInCU: 0x11111, offset: 0x11111, size: 0x8, addend: 0x0, symName: __ZN5EigenL15DirectAccessBitE, symObjAddr: 0x4E70, symBinAddr: 0x100009740, symSize: 0x0 }
  - { offsetInCU: 0x11126, offset: 0x11126, size: 0x8, addend: 0x0, symName: __ZN5EigenL10AlignedBitE, symObjAddr: 0x4E74, symBinAddr: 0x100009744, symSize: 0x0 }
  - { offsetInCU: 0x11142, offset: 0x11142, size: 0x8, addend: 0x0, symName: __ZN5EigenL12NestByRefBitE, symObjAddr: 0x4E78, symBinAddr: 0x100009748, symSize: 0x0 }
  - { offsetInCU: 0x1116A, offset: 0x1116A, size: 0x8, addend: 0x0, symName: __ZN5EigenL26NoPreferredStorageOrderBitE, symObjAddr: 0x4E7C, symBinAddr: 0x10000974C, symSize: 0x0 }
  - { offsetInCU: 0x1117D, offset: 0x1117D, size: 0x8, addend: 0x0, symName: __ZN5EigenL19CompressedAccessBitE, symObjAddr: 0x4E80, symBinAddr: 0x100009750, symSize: 0x0 }
  - { offsetInCU: 0x11192, offset: 0x11192, size: 0x8, addend: 0x0, symName: __ZN5EigenL14HereditaryBitsE, symObjAddr: 0x4E84, symBinAddr: 0x100009754, symSize: 0x0 }
  - { offsetInCU: 0x11407, offset: 0x11407, size: 0x8, addend: 0x0, symName: __ZSt3absd, symObjAddr: 0x8, symBinAddr: 0x100003E30, symSize: 0x18 }
  - { offsetInCU: 0x1140F, offset: 0x1140F, size: 0x8, addend: 0x0, symName: __ZNSt9exceptionC2Ev, symObjAddr: 0x20, symBinAddr: 0x100003E48, symSize: 0x28 }
  - { offsetInCU: 0x1220B, offset: 0x1220B, size: 0x8, addend: 0x0, symName: __ZN5Eigen8internalL18p2ul_conj_XOR_DATAE, symObjAddr: 0x4E88, symBinAddr: 0x100009758, symSize: 0x0 }
  - { offsetInCU: 0x12221, offset: 0x12221, size: 0x8, addend: 0x0, symName: __ZN5Eigen8internalL13p2ul_CONJ_XORE, symObjAddr: 0xAA6A0, symBinAddr: 0x100010150, symSize: 0x0 }
  - { offsetInCU: 0x12465, offset: 0x12465, size: 0x8, addend: 0x0, symName: __ZN5Eigen12placeholdersL4lastE, symObjAddr: 0x4E98, symBinAddr: 0x100009768, symSize: 0x0 }
  - { offsetInCU: 0x129CB, offset: 0x129CB, size: 0x8, addend: 0x0, symName: __ZN5Eigen12placeholdersL6lastp1E, symObjAddr: 0x4E99, symBinAddr: 0x100009769, symSize: 0x0 }
  - { offsetInCU: 0x129E2, offset: 0x129E2, size: 0x8, addend: 0x0, symName: __ZN5Eigen12placeholdersL3endE, symObjAddr: 0x4E9B, symBinAddr: 0x10000976B, symSize: 0x0 }
  - { offsetInCU: 0x129FC, offset: 0x129FC, size: 0x8, addend: 0x0, symName: __ZN5Eigen12placeholdersL3allE, symObjAddr: 0x4E9D, symBinAddr: 0x10000976D, symSize: 0x0 }
  - { offsetInCU: 0x12A1C, offset: 0x12A1C, size: 0x8, addend: 0x0, symName: __ZN5EigenL9AutoOrderE, symObjAddr: 0x4EA0, symBinAddr: 0x100009770, symSize: 0x0 }
  - { offsetInCU: 0x12C57, offset: 0x12C57, size: 0x8, addend: 0x0, symName: __ZN5Eigen8internalL18defaultL1CacheSizeE, symObjAddr: 0x4EA8, symBinAddr: 0x100009778, symSize: 0x0 }
  - { offsetInCU: 0x12C71, offset: 0x12C71, size: 0x8, addend: 0x0, symName: __ZN5Eigen8internalL18defaultL2CacheSizeE, symObjAddr: 0x4EB0, symBinAddr: 0x100009780, symSize: 0x0 }
  - { offsetInCU: 0x12C8B, offset: 0x12C8B, size: 0x8, addend: 0x0, symName: __ZN5Eigen8internalL18defaultL3CacheSizeE, symObjAddr: 0x4EB8, symBinAddr: 0x100009788, symSize: 0x0 }
  - { offsetInCU: 0x1BAF8, offset: 0x1BAF8, size: 0x8, addend: 0x0, symName: __ZStL8__ioinit, symObjAddr: 0xAA6B0, symBinAddr: 0x100010160, symSize: 0x0 }
  - { offsetInCU: 0x29B52, offset: 0x29B52, size: 0x8, addend: 0x0, symName: __ZN5Eigen3fixILi1EEE, symObjAddr: 0x4EE0, symBinAddr: 0x1000097B0, symSize: 0x0 }
  - { offsetInCU: 0x29B6D, offset: 0x29B6D, size: 0x8, addend: 0x0, symName: __ZN5Eigen8internal16is_int_or_enum_vIiEE, symObjAddr: 0x4EE1, symBinAddr: 0x1000097B1, symSize: 0x0 }
  - { offsetInCU: 0x29B88, offset: 0x29B88, size: 0x8, addend: 0x0, symName: __ZN5Eigen8internal16is_int_or_enum_vINS_9DenseBaseINS_6MatrixIfLi4ELi1ELi0ELi4ELi1EEEEUt_EEE, symObjAddr: 0x4EE2, symBinAddr: 0x1000097B2, symSize: 0x0 }
  - { offsetInCU: 0x29BA3, offset: 0x29BA3, size: 0x8, addend: 0x0, symName: __ZN5Eigen8internal16is_int_or_enum_vINS_9DenseBaseINS_6MatrixIdLi4ELi1ELi0ELi4ELi1EEEEUt_EEE, symObjAddr: 0x4EE3, symBinAddr: 0x1000097B3, symSize: 0x0 }
  - { offsetInCU: 0x29BBE, offset: 0x29BBE, size: 0x8, addend: 0x0, symName: __ZN5Eigen8internal16is_int_or_enum_vINS_9DenseBaseINS_6MatrixIdLin1ELin1ELi0ELin1ELin1EEEEUt_EEE, symObjAddr: 0x4EE4, symBinAddr: 0x1000097B4, symSize: 0x0 }
  - { offsetInCU: 0x29BD9, offset: 0x29BD9, size: 0x8, addend: 0x0, symName: __ZNSt8__detail30__integer_to_chars_is_unsignedIjEE, symObjAddr: 0x4EE5, symBinAddr: 0x1000097B5, symSize: 0x0 }
  - { offsetInCU: 0x29BF3, offset: 0x29BF3, size: 0x8, addend: 0x0, symName: __ZNSt8__detail30__integer_to_chars_is_unsignedImEE, symObjAddr: 0x4EE6, symBinAddr: 0x1000097B6, symSize: 0x0 }
  - { offsetInCU: 0x29C0D, offset: 0x29C0D, size: 0x8, addend: 0x0, symName: __ZNSt8__detail30__integer_to_chars_is_unsignedIyEE, symObjAddr: 0x4EE7, symBinAddr: 0x1000097B7, symSize: 0x0 }
  - { offsetInCU: 0x29C27, offset: 0x29C27, size: 0x8, addend: 0x0, symName: __ZN5Eigen8internal16is_int_or_enum_vINS_9DenseBaseINS_5BlockINS_6MatrixIdLin1ELin1ELi0ELin1ELin1EEELi1ELin1ELb0EEEEUt_EEE, symObjAddr: 0x4EE8, symBinAddr: 0x1000097B8, symSize: 0x0 }
  - { offsetInCU: 0x29C42, offset: 0x29C42, size: 0x8, addend: 0x0, symName: __ZN5Eigen8internal16is_int_or_enum_vINS_9DenseBaseINS_12CwiseUnaryOpINS0_13scalar_abs_opIdEEKNS_5BlockINS_6MatrixIdLin1ELin1ELi0ELin1ELin1EEELi1ELin1ELb0EEEEEEUt_EEE, symObjAddr: 0x4EE9, symBinAddr: 0x1000097B9, symSize: 0x0 }
  - { offsetInCU: 0x29C5D, offset: 0x29C5D, size: 0x8, addend: 0x0, symName: __ZN5Eigen8internal16is_int_or_enum_vINS0_9evaluatorINS_15PlainObjectBaseINS_6MatrixIdLin1ELin1ELi0ELin1ELin1EEEEEEUt_EEE, symObjAddr: 0x4EEA, symBinAddr: 0x1000097BA, symSize: 0x0 }
  - { offsetInCU: 0x29C78, offset: 0x29C78, size: 0x8, addend: 0x0, symName: __ZN5Eigen8internal16is_int_or_enum_vINS0_9evaluatorINS_5BlockINS_6MatrixIdLin1ELin1ELi0ELin1ELin1EEELi1ELin1ELb0EEEEUt_EEE, symObjAddr: 0x4EEB, symBinAddr: 0x1000097BB, symSize: 0x0 }
  - { offsetInCU: 0x29C93, offset: 0x29C93, size: 0x8, addend: 0x0, symName: __ZN5Eigen8internal16is_int_or_enum_vINS_5BlockINS_6MatrixIdLin1ELin1ELi0ELin1ELin1EEELi1ELin1ELb0EE17CompileTimeTraitsEEE, symObjAddr: 0x4EEC, symBinAddr: 0x1000097BC, symSize: 0x0 }
  - { offsetInCU: 0x29E60, offset: 0x29E60, size: 0x8, addend: 0x0, symName: __Z8PCludcmpIN5Eigen6MatrixIdLin1ELin1ELi0ELin1ELin1EEEEvRNS0_10MatrixBaseIT_EElPi, symObjAddr: 0xE30, symBinAddr: 0x100004C58, symSize: 0x2F4 }
  - { offsetInCU: 0x29E68, offset: 0x29E68, size: 0x8, addend: 0x0, symName: __ZN5Eigen8IOFormatD1Ev, symObjAddr: 0x1124, symBinAddr: 0x100004F4C, symSize: 0x68 }
  - { offsetInCU: 0x29EA8, offset: 0x29EA8, size: 0x8, addend: 0x0, symName: __Z8PCludcmpIN5Eigen6MatrixIdLin1ELin1ELi0ELin1ELin1EEEEvRNS0_10MatrixBaseIT_EElPi._omp_fn.0, symObjAddr: 0x3F6C, symBinAddr: 0x100007D94, symSize: 0x11C }
  - { offsetInCU: 0x29EB0, offset: 0x29EB0, size: 0x8, addend: 0x0, symName: __Z8PCludcmpIN5Eigen6MatrixIdLin1ELin1ELi0ELin1ELin1EEEEvRNS0_10MatrixBaseIT_EElPi._omp_fn.1, symObjAddr: 0x4088, symBinAddr: 0x100007EB0, symSize: 0x158 }
  - { offsetInCU: 0x2A00A, offset: 0x2A00A, size: 0x8, addend: 0x0, symName: __Z8PCludcmpIN5Eigen6MatrixIdLin1ELin1ELi0ELin1ELin1EEEEvRNS0_10MatrixBaseIT_EElPi._omp_fn.1, symObjAddr: 0x4088, symBinAddr: 0x100007EB0, symSize: 0x158 }
  - { offsetInCU: 0x2A012, offset: 0x2A012, size: 0x8, addend: 0x0, symName: __Z8PCludcmpIN5Eigen6MatrixIdLin1ELin1ELi0ELin1ELin1EEEEvRNS0_10MatrixBaseIT_EElPi._omp_fn.2, symObjAddr: 0x41E0, symBinAddr: 0x100008008, symSize: 0x1E4 }
  - { offsetInCU: 0x2A092, offset: 0x2A092, size: 0x8, addend: 0x0, symName: __Z8PCludcmpIN5Eigen6MatrixIdLin1ELin1ELi0ELin1ELin1EEEEvRNS0_10MatrixBaseIT_EElPi._omp_fn.2, symObjAddr: 0x41E0, symBinAddr: 0x100008008, symSize: 0x1E4 }
  - { offsetInCU: 0x2A09A, offset: 0x2A09A, size: 0x8, addend: 0x0, symName: __Z8PCludcmpIN5Eigen6MatrixIdLin1ELin1ELi0ELin1ELin1EEEEvRNS0_10MatrixBaseIT_EElPi._omp_fn.3, symObjAddr: 0x43C4, symBinAddr: 0x1000081EC, symSize: 0xF4 }
  - { offsetInCU: 0x2A140, offset: 0x2A140, size: 0x8, addend: 0x0, symName: __Z8PCludcmpIN5Eigen6MatrixIdLin1ELin1ELi0ELin1ELin1EEEEvRNS0_10MatrixBaseIT_EElPi._omp_fn.3, symObjAddr: 0x43C4, symBinAddr: 0x1000081EC, symSize: 0xF4 }
  - { offsetInCU: 0x2A2B3, offset: 0x2A2B3, size: 0x8, addend: 0x0, symName: __GLOBAL__sub_I_PCludcmp.cpp, symObjAddr: 0x3F58, symBinAddr: 0x100007D80, symSize: 0x14 }
  - { offsetInCU: 0x2A2BB, offset: 0x2A2BB, size: 0x8, addend: 0x0, symName: __Z8PCludcmpIN5Eigen6MatrixIdLin1ELin1ELi0ELin1ELin1EEEEvRNS0_10MatrixBaseIT_EElPi._omp_fn.0, symObjAddr: 0x3F6C, symBinAddr: 0x100007D94, symSize: 0x11C }
  - { offsetInCU: 0x2A2DB, offset: 0x2A2DB, size: 0x8, addend: 0x0, symName: __Z41__static_initialization_and_destruction_0v, symObjAddr: 0x3EF8, symBinAddr: 0x100007D20, symSize: 0x60 }
  - { offsetInCU: 0x2A2E3, offset: 0x2A2E3, size: 0x8, addend: 0x0, symName: __GLOBAL__sub_I_PCludcmp.cpp, symObjAddr: 0x3F58, symBinAddr: 0x100007D80, symSize: 0x14 }
  - { offsetInCU: 0x2A339, offset: 0x2A339, size: 0x8, addend: 0x0, symName: __ZSt4moveIRdEONSt16remove_referenceIT_E4typeEOS2_, symObjAddr: 0x3EE4, symBinAddr: 0x100007D0C, symSize: 0x14 }
  - { offsetInCU: 0x2A341, offset: 0x2A341, size: 0x8, addend: 0x0, symName: __Z41__static_initialization_and_destruction_0v, symObjAddr: 0x3EF8, symBinAddr: 0x100007D20, symSize: 0x60 }
  - { offsetInCU: 0x2A3F2, offset: 0x2A3F2, size: 0x8, addend: 0x0, symName: __ZSt4swapIdENSt9enable_ifIXsrSt6__and_IJSt6__not_ISt15__is_tuple_likeIT_EESt21is_move_constructibleIS4_ESt18is_move_assignableIS4_EEE5valueEvE4typeERS4_SE_, symObjAddr: 0x3E90, symBinAddr: 0x100007CB8, symSize: 0x54 }
  - { offsetInCU: 0x2A3FA, offset: 0x2A3FA, size: 0x8, addend: 0x0, symName: __ZSt4moveIRdEONSt16remove_referenceIT_E4typeEOS2_, symObjAddr: 0x3EE4, symBinAddr: 0x100007D0C, symSize: 0x14 }
  - { offsetInCU: 0x2A431, offset: 0x2A431, size: 0x8, addend: 0x0, symName: __ZN5Eigen8internal14evaluator_baseINS_5BlockINS_6MatrixIdLin1ELin1ELi0ELin1ELin1EEELi1ELin1ELb0EEEEC2Ev, symObjAddr: 0x3E7C, symBinAddr: 0x100007CA4, symSize: 0x14 }
  - { offsetInCU: 0x2A439, offset: 0x2A439, size: 0x8, addend: 0x0, symName: __ZSt4swapIdENSt9enable_ifIXsrSt6__and_IJSt6__not_ISt15__is_tuple_likeIT_EESt21is_move_constructibleIS4_ESt18is_move_assignableIS4_EEE5valueEvE4typeERS4_SE_, symObjAddr: 0x3E90, symBinAddr: 0x100007CB8, symSize: 0x54 }
  - { offsetInCU: 0x2A3F7, offset: 0x2A3F7, size: 0x8, addend: 0x0, symName: __ZNK5Eigen8internal15BlockImpl_denseINS_6MatrixIdLin1ELin1ELi0ELin1ELin1EEELi1ELin1ELb0ELb1EE11outerStrideEv, symObjAddr: 0x3E5C, symBinAddr: 0x100007C84, symSize: 0x20 }
  - { offsetInCU: 0x2A3FF, offset: 0x2A3FF, size: 0x8, addend: 0x0, symName: __ZN5Eigen8internal14evaluator_baseINS_5BlockINS_6MatrixIdLin1ELin1ELi0ELin1ELin1EEELi1ELin1ELb0EEEEC2Ev, symObjAddr: 0x3E7C, symBinAddr: 0x100007CA4, symSize: 0x14 }
  - { offsetInCU: 0x2A426, offset: 0x2A426, size: 0x8, addend: 0x0, symName: __ZNK5Eigen8internal15BlockImpl_denseINS_6MatrixIdLin1ELin1ELi0ELin1ELin1EEELi1ELin1ELb0ELb1EE11innerStrideEv, symObjAddr: 0x3E3C, symBinAddr: 0x100007C64, symSize: 0x20 }
  - { offsetInCU: 0x2A42E, offset: 0x2A42E, size: 0x8, addend: 0x0, symName: __ZNK5Eigen8internal15BlockImpl_denseINS_6MatrixIdLin1ELin1ELi0ELin1ELin1EEELi1ELin1ELb0ELb1EE11outerStrideEv, symObjAddr: 0x3E5C, symBinAddr: 0x100007C84, symSize: 0x20 }
  - { offsetInCU: 0x2A455, offset: 0x2A455, size: 0x8, addend: 0x0, symName: __ZNK5Eigen7MapBaseINS_5BlockINS_6MatrixIdLin1ELin1ELi0ELin1ELin1EEELi1ELin1ELb0EEELi1EE4dataEv, symObjAddr: 0x3E24, symBinAddr: 0x100007C4C, symSize: 0x18 }
  - { offsetInCU: 0x2A45D, offset: 0x2A45D, size: 0x8, addend: 0x0, symName: __ZNK5Eigen8internal15BlockImpl_denseINS_6MatrixIdLin1ELin1ELi0ELin1ELin1EEELi1ELin1ELb0ELb1EE11innerStrideEv, symObjAddr: 0x3E3C, symBinAddr: 0x100007C64, symSize: 0x20 }
  - { offsetInCU: 0x2A4AB, offset: 0x2A4AB, size: 0x8, addend: 0x0, symName: __ZSt3maxIdERKT_S2_S2_, symObjAddr: 0x3DE8, symBinAddr: 0x100007C10, symSize: 0x3C }
  - { offsetInCU: 0x2A4B3, offset: 0x2A4B3, size: 0x8, addend: 0x0, symName: __ZNK5Eigen7MapBaseINS_5BlockINS_6MatrixIdLin1ELin1ELi0ELin1ELin1EEELi1ELin1ELb0EEELi1EE4dataEv, symObjAddr: 0x3E24, symBinAddr: 0x100007C4C, symSize: 0x18 }
  - { offsetInCU: 0x2A4E6, offset: 0x2A4E6, size: 0x8, addend: 0x0, symName: __ZNK5Eigen8internal14swap_assign_opIdE11assignCoeffERdRKd, symObjAddr: 0x3DBC, symBinAddr: 0x100007BE4, symSize: 0x2C }
  - { offsetInCU: 0x2A4EE, offset: 0x2A4EE, size: 0x8, addend: 0x0, symName: __ZSt3maxIdERKT_S2_S2_, symObjAddr: 0x3DE8, symBinAddr: 0x100007C10, symSize: 0x3C }
  - { offsetInCU: 0x2A53B, offset: 0x2A53B, size: 0x8, addend: 0x0, symName: __ZN5Eigen8internal17mapbase_evaluatorINS_5BlockINS_6MatrixIdLin1ELin1ELi0ELin1ELin1EEELi1ELin1ELb0EEENS3_IdLi1ELin1ELi1ELi1ELin1EEEE8coeffRefEl, symObjAddr: 0x3D74, symBinAddr: 0x100007B9C, symSize: 0x48 }
  - { offsetInCU: 0x2A543, offset: 0x2A543, size: 0x8, addend: 0x0, symName: __ZNK5Eigen8internal14swap_assign_opIdE11assignCoeffERdRKd, symObjAddr: 0x3DBC, symBinAddr: 0x100007BE4, symSize: 0x2C }
  - { offsetInCU: 0x2A637, offset: 0x2A637, size: 0x8, addend: 0x0, symName: __ZN5Eigen8internal17mapbase_evaluatorINS_5BlockINS_6MatrixIdLin1ELin1ELi0ELin1ELin1EEELi1ELin1ELb0EEENS3_IdLi1ELin1ELi1ELi1ELin1EEEEC2ERKS5_, symObjAddr: 0x3CE8, symBinAddr: 0x100007B10, symSize: 0x8C }
  - { offsetInCU: 0x2A63F, offset: 0x2A63F, size: 0x8, addend: 0x0, symName: __ZN5Eigen8internal17mapbase_evaluatorINS_5BlockINS_6MatrixIdLin1ELin1ELi0ELin1ELin1EEELi1ELin1ELb0EEENS3_IdLi1ELin1ELi1ELi1ELin1EEEE8coeffRefEl, symObjAddr: 0x3D74, symBinAddr: 0x100007B9C, symSize: 0x48 }
  - { offsetInCU: 0x2A6BE, offset: 0x2A6BE, size: 0x8, addend: 0x0, symName: __ZN5Eigen8internal9evaluatorIKNS_5BlockINS_6MatrixIdLin1ELin1ELi0ELin1ELin1EEELi1ELin1ELb0EEEEC1ERS6_, symObjAddr: 0x3CC0, symBinAddr: 0x100007AE8, symSize: 0x28 }
  - { offsetInCU: 0x2A6C6, offset: 0x2A6C6, size: 0x8, addend: 0x0, symName: __ZN5Eigen8internal17mapbase_evaluatorINS_5BlockINS_6MatrixIdLin1ELin1ELi0ELin1ELin1EEELi1ELin1ELb0EEENS3_IdLi1ELin1ELi1ELi1ELin1EEEEC2ERKS5_, symObjAddr: 0x3CE8, symBinAddr: 0x100007B10, symSize: 0x8C }
  - { offsetInCU: 0x2A692, offset: 0x2A692, size: 0x8, addend: 0x0, symName: __ZNK5Eigen12CwiseUnaryOpINS_8internal13scalar_abs_opIdEEKNS_5BlockINS_6MatrixIdLin1ELin1ELi0ELin1ELin1EEELi1ELin1ELb0EEEE16nestedExpressionEv, symObjAddr: 0x3CAC, symBinAddr: 0x100007AD4, symSize: 0x14 }
  - { offsetInCU: 0x2A69A, offset: 0x2A69A, size: 0x8, addend: 0x0, symName: __ZN5Eigen8internal9evaluatorIKNS_5BlockINS_6MatrixIdLin1ELin1ELi0ELin1ELin1EEELi1ELin1ELb0EEEEC1ERS6_, symObjAddr: 0x3CC0, symBinAddr: 0x100007AE8, symSize: 0x28 }
  - { offsetInCU: 0x2A6C1, offset: 0x2A6C1, size: 0x8, addend: 0x0, symName: __ZNK5Eigen12CwiseUnaryOpINS_8internal13scalar_abs_opIdEEKNS_5BlockINS_6MatrixIdLin1ELin1ELi0ELin1ELin1EEELi1ELin1ELb0EEEE7functorEv, symObjAddr: 0x3C94, symBinAddr: 0x100007ABC, symSize: 0x18 }
  - { offsetInCU: 0x2A6C9, offset: 0x2A6C9, size: 0x8, addend: 0x0, symName: __ZNK5Eigen12CwiseUnaryOpINS_8internal13scalar_abs_opIdEEKNS_5BlockINS_6MatrixIdLin1ELin1ELi0ELin1ELin1EEELi1ELin1ELb0EEEE16nestedExpressionEv, symObjAddr: 0x3CAC, symBinAddr: 0x100007AD4, symSize: 0x14 }
  - { offsetInCU: 0x2A6F0, offset: 0x2A6F0, size: 0x8, addend: 0x0, symName: __ZN5Eigen8internal31generic_dense_assignment_kernelINS0_9evaluatorINS_5BlockINS_6MatrixIdLin1ELin1ELi0ELin1ELin1EEELi1ELin1ELb0EEEEES7_NS0_14swap_assign_opIdEELi1EE11assignCoeffEl, symObjAddr: 0x3C34, symBinAddr: 0x100007A5C, symSize: 0x60 }
  - { offsetInCU: 0x2A6F8, offset: 0x2A6F8, size: 0x8, addend: 0x0, symName: __ZNK5Eigen12CwiseUnaryOpINS_8internal13scalar_abs_opIdEEKNS_5BlockINS_6MatrixIdLin1ELin1ELi0ELin1ELin1EEELi1ELin1ELb0EEEE7functorEv, symObjAddr: 0x3C94, symBinAddr: 0x100007ABC, symSize: 0x18 }
  - { offsetInCU: 0x2A734, offset: 0x2A734, size: 0x8, addend: 0x0, symName: __ZNK5Eigen9EigenBaseINS_5BlockINS_6MatrixIdLin1ELin1ELi0ELin1ELin1EEELi1ELin1ELb0EEEE4sizeEv, symObjAddr: 0x3C00, symBinAddr: 0x100007A28, symSize: 0x34 }
  - { offsetInCU: 0x2A73C, offset: 0x2A73C, size: 0x8, addend: 0x0, symName: __ZN5Eigen8internal31generic_dense_assignment_kernelINS0_9evaluatorINS_5BlockINS_6MatrixIdLin1ELin1ELi0ELin1ELin1EEELi1ELin1ELb0EEEEES7_NS0_14swap_assign_opIdEELi1EE11assignCoeffEl, symObjAddr: 0x3C34, symBinAddr: 0x100007A5C, symSize: 0x60 }
  - { offsetInCU: 0x2A87E, offset: 0x2A87E, size: 0x8, addend: 0x0, symName: __ZN5Eigen8internal31generic_dense_assignment_kernelINS0_9evaluatorINS_5BlockINS_6MatrixIdLin1ELin1ELi0ELin1ELin1EEELi1ELin1ELb0EEEEES7_NS0_14swap_assign_opIdEELi1EEC2ERS7_RKS7_RKS9_RS6_, symObjAddr: 0x3BAC, symBinAddr: 0x1000079D4, symSize: 0x54 }
  - { offsetInCU: 0x2A886, offset: 0x2A886, size: 0x8, addend: 0x0, symName: __ZNK5Eigen9EigenBaseINS_5BlockINS_6MatrixIdLin1ELin1ELi0ELin1ELin1EEELi1ELin1ELb0EEEE4sizeEv, symObjAddr: 0x3C00, symBinAddr: 0x100007A28, symSize: 0x34 }
  - { offsetInCU: 0x2A8CB, offset: 0x2A8CB, size: 0x8, addend: 0x0, symName: __ZN5Eigen8internal15block_evaluatorINS_6MatrixIdLin1ELin1ELi0ELin1ELin1EEELi1ELin1ELb0ELb1EEC2ERKNS_5BlockIS3_Li1ELin1ELb0EEE, symObjAddr: 0x3B84, symBinAddr: 0x1000079AC, symSize: 0x28 }
  - { offsetInCU: 0x2A8D3, offset: 0x2A8D3, size: 0x8, addend: 0x0, symName: __ZN5Eigen8internal31generic_dense_assignment_kernelINS0_9evaluatorINS_5BlockINS_6MatrixIdLin1ELin1ELi0ELin1ELin1EEELi1ELin1ELb0EEEEES7_NS0_14swap_assign_opIdEELi1EEC2ERS7_RKS7_RKS9_RS6_, symObjAddr: 0x3BAC, symBinAddr: 0x1000079D4, symSize: 0x54 }
  - { offsetInCU: 0x2A89B, offset: 0x2A89B, size: 0x8, addend: 0x0, symName: __ZN5Eigen8internal12pminmax_implILi0EE3runIdZNS0_4pmaxILi0EdEET0_RKS5_S7_EUlRKdS9_E_EET_RKSB_SD_S5_, symObjAddr: 0x3B58, symBinAddr: 0x100007980, symSize: 0x2C }
  - { offsetInCU: 0x2A8A3, offset: 0x2A8A3, size: 0x8, addend: 0x0, symName: __ZN5Eigen8internal15block_evaluatorINS_6MatrixIdLin1ELin1ELi0ELin1ELin1EEELi1ELin1ELb0ELb1EEC2ERKNS_5BlockIS3_Li1ELin1ELb0EEE, symObjAddr: 0x3B84, symBinAddr: 0x1000079AC, symSize: 0x28 }
  - { offsetInCU: 0x2A94A, offset: 0x2A94A, size: 0x8, addend: 0x0, symName: __ZN5Eigen8internal4pmaxIdEET_RKS2_S4_, symObjAddr: 0x3B20, symBinAddr: 0x100007948, symSize: 0x38 }
  - { offsetInCU: 0x2A952, offset: 0x2A952, size: 0x8, addend: 0x0, symName: __ZN5Eigen8internal12pminmax_implILi0EE3runIdZNS0_4pmaxILi0EdEET0_RKS5_S7_EUlRKdS9_E_EET_RKSB_SD_S5_, symObjAddr: 0x3B58, symBinAddr: 0x100007980, symSize: 0x2C }
  - { offsetInCU: 0x2AACA, offset: 0x2AACA, size: 0x8, addend: 0x0, symName: __ZN5Eigen8internal15unary_evaluatorINS_12CwiseUnaryOpINS0_13scalar_abs_opIdEEKNS_5BlockINS_6MatrixIdLin1ELin1ELi0ELin1ELin1EEELi1ELin1ELb0EEEEENS0_10IndexBasedEdE4DataC1ERKSA_, symObjAddr: 0x3AD8, symBinAddr: 0x100007900, symSize: 0x48 }
  - { offsetInCU: 0x2AAD2, offset: 0x2AAD2, size: 0x8, addend: 0x0, symName: __ZN5Eigen8internal4pmaxIdEET_RKS2_S4_, symObjAddr: 0x3B20, symBinAddr: 0x100007948, symSize: 0x38 }
  - { offsetInCU: 0x2AB01, offset: 0x2AB01, size: 0x8, addend: 0x0, symName: __ZN5Eigen8internal14evaluator_baseINS_12CwiseUnaryOpINS0_13scalar_abs_opIdEEKNS_5BlockINS_6MatrixIdLin1ELin1ELi0ELin1ELin1EEELi1ELin1ELb0EEEEEEC2Ev, symObjAddr: 0x3AC4, symBinAddr: 0x1000078EC, symSize: 0x14 }
  - { offsetInCU: 0x2AB09, offset: 0x2AB09, size: 0x8, addend: 0x0, symName: __ZN5Eigen8internal15unary_evaluatorINS_12CwiseUnaryOpINS0_13scalar_abs_opIdEEKNS_5BlockINS_6MatrixIdLin1ELin1ELi0ELin1ELin1EEELi1ELin1ELb0EEEEENS0_10IndexBasedEdE4DataC1ERKSA_, symObjAddr: 0x3AD8, symBinAddr: 0x100007900, symSize: 0x48 }
  - { offsetInCU: 0x2AAAC, offset: 0x2AAAC, size: 0x8, addend: 0x0, symName: __ZNK5Eigen7MapBaseINS_5BlockINS_6MatrixIdLin1ELin1ELi0ELin1ELin1EEELi1ELin1ELb0EEELi0EE11checkSanityIS4_EEvNSt9enable_ifIXeqsrNS_8internal6traitsIT_EE9AlignmentLi0EEPvE4typeE, symObjAddr: 0x3A64, symBinAddr: 0x10000788C, symSize: 0x60 }
  - { offsetInCU: 0x2AAB4, offset: 0x2AAB4, size: 0x8, addend: 0x0, symName: __ZN5Eigen8internal14evaluator_baseINS_12CwiseUnaryOpINS0_13scalar_abs_opIdEEKNS_5BlockINS_6MatrixIdLin1ELin1ELi0ELin1ELin1EEELi1ELin1ELb0EEEEEEC2Ev, symObjAddr: 0x3AC4, symBinAddr: 0x1000078EC, symSize: 0x14 }
  - { offsetInCU: 0x2ABB4, offset: 0x2ABB4, size: 0x8, addend: 0x0, symName: __ZN5Eigen8internal19variable_if_dynamicIlLi1EEC1El, symObjAddr: 0x3A0C, symBinAddr: 0x100007834, symSize: 0x58 }
  - { offsetInCU: 0x2ABBC, offset: 0x2ABBC, size: 0x8, addend: 0x0, symName: __ZNK5Eigen7MapBaseINS_5BlockINS_6MatrixIdLin1ELin1ELi0ELin1ELin1EEELi1ELin1ELb0EEELi0EE11checkSanityIS4_EEvNSt9enable_ifIXeqsrNS_8internal6traitsIT_EE9AlignmentLi0EEPvE4typeE, symObjAddr: 0x3A64, symBinAddr: 0x10000788C, symSize: 0x60 }
  - { offsetInCU: 0x2AC41, offset: 0x2AC41, size: 0x8, addend: 0x0, symName: __ZN5Eigen9DenseBaseINS_5BlockINS_6MatrixIdLin1ELin1ELi0ELin1ELin1EEELi1ELin1ELb0EEEEC2Ev, symObjAddr: 0x39F8, symBinAddr: 0x100007820, symSize: 0x14 }
  - { offsetInCU: 0x2AC49, offset: 0x2AC49, size: 0x8, addend: 0x0, symName: __ZN5Eigen8internal19variable_if_dynamicIlLi1EEC1El, symObjAddr: 0x3A0C, symBinAddr: 0x100007834, symSize: 0x58 }
  - { offsetInCU: 0x2AC16, offset: 0x2AC16, size: 0x8, addend: 0x0, symName: __ZN5Eigen8internal21dense_assignment_loopINS0_31generic_dense_assignment_kernelINS0_9evaluatorINS_5BlockINS_6MatrixIdLin1ELin1ELi0ELin1ELin1EEELi1ELin1ELb0EEEEES8_NS0_14swap_assign_opIdEELi0EEELi1ELi0EE3runERSB_, symObjAddr: 0x39A0, symBinAddr: 0x1000077C8, symSize: 0x58 }
  - { offsetInCU: 0x2AC1E, offset: 0x2AC1E, size: 0x8, addend: 0x0, symName: __ZN5Eigen9DenseBaseINS_5BlockINS_6MatrixIdLin1ELin1ELi0ELin1ELin1EEELi1ELin1ELb0EEEEC2Ev, symObjAddr: 0x39F8, symBinAddr: 0x100007820, symSize: 0x14 }
  - { offsetInCU: 0x2AC83, offset: 0x2AC83, size: 0x8, addend: 0x0, symName: __ZNK5Eigen8internal31generic_dense_assignment_kernelINS0_9evaluatorINS_5BlockINS_6MatrixIdLin1ELin1ELi0ELin1ELin1EEELi1ELin1ELb0EEEEES7_NS0_14swap_assign_opIdEELi1EE4sizeEv, symObjAddr: 0x3980, symBinAddr: 0x1000077A8, symSize: 0x20 }
  - { offsetInCU: 0x2AC8B, offset: 0x2AC8B, size: 0x8, addend: 0x0, symName: __ZN5Eigen8internal21dense_assignment_loopINS0_31generic_dense_assignment_kernelINS0_9evaluatorINS_5BlockINS_6MatrixIdLin1ELin1ELi0ELin1ELin1EEELi1ELin1ELb0EEEEES8_NS0_14swap_assign_opIdEELi0EEELi1ELi0EE3runERSB_, symObjAddr: 0x39A0, symBinAddr: 0x1000077C8, symSize: 0x58 }
  - { offsetInCU: 0x2ADC9, offset: 0x2ADC9, size: 0x8, addend: 0x0, symName: __ZN5Eigen8internal31generic_dense_assignment_kernelINS0_9evaluatorINS_5BlockINS_6MatrixIdLin1ELin1ELi0ELin1ELin1EEELi1ELin1ELb0EEEEES7_NS0_14swap_assign_opIdEELi0EEC1ERS7_RKS7_RKS9_RS6_, symObjAddr: 0x3940, symBinAddr: 0x100007768, symSize: 0x40 }
  - { offsetInCU: 0x2ADD1, offset: 0x2ADD1, size: 0x8, addend: 0x0, symName: __ZNK5Eigen8internal31generic_dense_assignment_kernelINS0_9evaluatorINS_5BlockINS_6MatrixIdLin1ELin1ELi0ELin1ELin1EEELi1ELin1ELb0EEEEES7_NS0_14swap_assign_opIdEELi1EE4sizeEv, symObjAddr: 0x3980, symBinAddr: 0x1000077A8, symSize: 0x20 }
  - { offsetInCU: 0x2AEB1, offset: 0x2AEB1, size: 0x8, addend: 0x0, symName: __ZN5Eigen8internal17resize_if_allowedINS_5BlockINS_6MatrixIdLin1ELin1ELi0ELin1ELin1EEELi1ELin1ELb0EEES5_NS0_14swap_assign_opIdEEEEvRT_RKT0_RKT1_, symObjAddr: 0x3888, symBinAddr: 0x1000076B0, symSize: 0xB8 }
  - { offsetInCU: 0x2AEB9, offset: 0x2AEB9, size: 0x8, addend: 0x0, symName: __ZN5Eigen8internal31generic_dense_assignment_kernelINS0_9evaluatorINS_5BlockINS_6MatrixIdLin1ELin1ELi0ELin1ELin1EEELi1ELin1ELb0EEEEES7_NS0_14swap_assign_opIdEELi0EEC1ERS7_RKS7_RKS9_RS6_, symObjAddr: 0x3940, symBinAddr: 0x100007768, symSize: 0x40 }
  - { offsetInCU: 0x2AEB6, offset: 0x2AEB6, size: 0x8, addend: 0x0, symName: __ZN5Eigen8internal9evaluatorINS_5BlockINS_6MatrixIdLin1ELin1ELi0ELin1ELin1EEELi1ELin1ELb0EEEEC1ERKS5_, symObjAddr: 0x3860, symBinAddr: 0x100007688, symSize: 0x28 }
  - { offsetInCU: 0x2AEBE, offset: 0x2AEBE, size: 0x8, addend: 0x0, symName: __ZN5Eigen8internal17resize_if_allowedINS_5BlockINS_6MatrixIdLin1ELin1ELi0ELin1ELin1EEELi1ELin1ELb0EEES5_NS0_14swap_assign_opIdEEEEvRT_RKT0_RKT1_, symObjAddr: 0x3888, symBinAddr: 0x1000076B0, symSize: 0xB8 }
  - { offsetInCU: 0x2AEF0, offset: 0x2AEF0, size: 0x8, addend: 0x0, symName: __ZN5Eigen8internal9evaluatorINS_5BlockINS_6MatrixIdLin1ELin1ELi0ELin1ELin1EEELi1ELin1ELb0EEEEC2ERKS5_, symObjAddr: 0x3838, symBinAddr: 0x100007660, symSize: 0x28 }
  - { offsetInCU: 0x2AEF8, offset: 0x2AEF8, size: 0x8, addend: 0x0, symName: __ZN5Eigen8internal9evaluatorINS_5BlockINS_6MatrixIdLin1ELin1ELi0ELin1ELin1EEELi1ELin1ELb0EEEEC1ERKS5_, symObjAddr: 0x3860, symBinAddr: 0x100007688, symSize: 0x28 }
  - { offsetInCU: 0x2AF04, offset: 0x2AF04, size: 0x8, addend: 0x0, symName: __ZN5Eigen8internal4pmaxILi0EdEET0_RKS2_S4_, symObjAddr: 0x3814, symBinAddr: 0x10000763C, symSize: 0x24 }
  - { offsetInCU: 0x2AF0C, offset: 0x2AF0C, size: 0x8, addend: 0x0, symName: __ZN5Eigen8internal9evaluatorINS_5BlockINS_6MatrixIdLin1ELin1ELi0ELin1ELin1EEELi1ELin1ELb0EEEEC2ERKS5_, symObjAddr: 0x3838, symBinAddr: 0x100007660, symSize: 0x28 }
  - { offsetInCU: 0x2AFA4, offset: 0x2AFA4, size: 0x8, addend: 0x0, symName: __ZZN5Eigen8internal4pmaxILi0EdEET0_RKS2_S4_ENKUlRKdS6_E_clES6_S6_, symObjAddr: 0x37EC, symBinAddr: 0x100007614, symSize: 0x28 }
  - { offsetInCU: 0x2AFAC, offset: 0x2AFAC, size: 0x8, addend: 0x0, symName: __ZN5Eigen8internal4pmaxILi0EdEET0_RKS2_S4_, symObjAddr: 0x3814, symBinAddr: 0x10000763C, symSize: 0x24 }
  - { offsetInCU: 0x2AFD3, offset: 0x2AFD3, size: 0x8, addend: 0x0, symName: __ZNK5Eigen8internal13scalar_abs_opIdEclERKd, symObjAddr: 0x37BC, symBinAddr: 0x1000075E4, symSize: 0x30 }
  - { offsetInCU: 0x2AFDB, offset: 0x2AFDB, size: 0x8, addend: 0x0, symName: __ZZN5Eigen8internal4pmaxILi0EdEET0_RKS2_S4_ENKUlRKdS6_E_clES6_S6_, symObjAddr: 0x37EC, symBinAddr: 0x100007614, symSize: 0x28 }
  - { offsetInCU: 0x2B03B, offset: 0x2B03B, size: 0x8, addend: 0x0, symName: __ZNK5Eigen8internal17mapbase_evaluatorINS_5BlockINS_6MatrixIdLin1ELin1ELi0ELin1ELin1EEELi1ELin1ELb0EEENS3_IdLi1ELin1ELi1ELi1ELin1EEEE5coeffEl, symObjAddr: 0x3774, symBinAddr: 0x10000759C, symSize: 0x48 }
  - { offsetInCU: 0x2B043, offset: 0x2B043, size: 0x8, addend: 0x0, symName: __ZNK5Eigen8internal13scalar_abs_opIdEclERKd, symObjAddr: 0x37BC, symBinAddr: 0x1000075E4, symSize: 0x30 }
  - { offsetInCU: 0x2B07F, offset: 0x2B07F, size: 0x8, addend: 0x0, symName: __ZNK5Eigen8internal15unary_evaluatorINS_12CwiseUnaryOpINS0_13scalar_abs_opIdEEKNS_5BlockINS_6MatrixIdLin1ELin1ELi0ELin1ELin1EEELi1ELin1ELb0EEEEENS0_10IndexBasedEdE4Data4funcEv, symObjAddr: 0x3760, symBinAddr: 0x100007588, symSize: 0x14 }
  - { offsetInCU: 0x2B087, offset: 0x2B087, size: 0x8, addend: 0x0, symName: __ZNK5Eigen8internal17mapbase_evaluatorINS_5BlockINS_6MatrixIdLin1ELin1ELi0ELin1ELin1EEELi1ELin1ELb0EEENS3_IdLi1ELin1ELi1ELi1ELin1EEEE5coeffEl, symObjAddr: 0x3774, symBinAddr: 0x10000759C, symSize: 0x48 }
  - { offsetInCU: 0x2B184, offset: 0x2B184, size: 0x8, addend: 0x0, symName: __ZN5Eigen8internal15unary_evaluatorINS_12CwiseUnaryOpINS0_13scalar_abs_opIdEEKNS_5BlockINS_6MatrixIdLin1ELin1ELi0ELin1ELin1EEELi1ELin1ELb0EEEEENS0_10IndexBasedEdEC2ERKSA_, symObjAddr: 0x3714, symBinAddr: 0x10000753C, symSize: 0x4C }
  - { offsetInCU: 0x2B18C, offset: 0x2B18C, size: 0x8, addend: 0x0, symName: __ZNK5Eigen8internal15unary_evaluatorINS_12CwiseUnaryOpINS0_13scalar_abs_opIdEEKNS_5BlockINS_6MatrixIdLin1ELin1ELi0ELin1ELin1EEELi1ELin1ELb0EEEEENS0_10IndexBasedEdE4Data4funcEv, symObjAddr: 0x3760, symBinAddr: 0x100007588, symSize: 0x14 }
  - { offsetInCU: 0x2B1E9, offset: 0x2B1E9, size: 0x8, addend: 0x0, symName: __ZN5Eigen7MapBaseINS_5BlockINS_6MatrixIdLin1ELin1ELi0ELin1ELin1EEELi1ELin1ELb0EEELi0EEC2EPdll, symObjAddr: 0x35E0, symBinAddr: 0x100007408, symSize: 0x134 }
  - { offsetInCU: 0x2B1F1, offset: 0x2B1F1, size: 0x8, addend: 0x0, symName: __ZN5Eigen8internal15unary_evaluatorINS_12CwiseUnaryOpINS0_13scalar_abs_opIdEEKNS_5BlockINS_6MatrixIdLin1ELin1ELi0ELin1ELin1EEELi1ELin1ELb0EEEEENS0_10IndexBasedEdEC2ERKSA_, symObjAddr: 0x3714, symBinAddr: 0x10000753C, symSize: 0x4C }
  - { offsetInCU: 0x2B265, offset: 0x2B265, size: 0x8, addend: 0x0, symName: __ZN5Eigen10MatrixBaseINS_5BlockINS_6MatrixIdLin1ELin1ELi0ELin1ELin1EEELi1ELin1ELb0EEEEC2Ev, symObjAddr: 0x35C0, symBinAddr: 0x1000073E8, symSize: 0x20 }
  - { offsetInCU: 0x2B26D, offset: 0x2B26D, size: 0x8, addend: 0x0, symName: __ZN5Eigen7MapBaseINS_5BlockINS_6MatrixIdLin1ELin1ELi0ELin1ELin1EEELi1ELin1ELb0EEELi0EEC2EPdll, symObjAddr: 0x35E0, symBinAddr: 0x100007408, symSize: 0x134 }
  - { offsetInCU: 0x2B238, offset: 0x2B238, size: 0x8, addend: 0x0, symName: __ZNK5Eigen9DenseBaseINS_6MatrixIdLin1ELin1ELi0ELin1ELin1EEEE9innerSizeEv, symObjAddr: 0x35A4, symBinAddr: 0x1000073CC, symSize: 0x1C }
  - { offsetInCU: 0x2B240, offset: 0x2B240, size: 0x8, addend: 0x0, symName: __ZN5Eigen10MatrixBaseINS_5BlockINS_6MatrixIdLin1ELin1ELi0ELin1ELin1EEELi1ELin1ELb0EEEEC2Ev, symObjAddr: 0x35C0, symBinAddr: 0x1000073E8, symSize: 0x20 }
  - { offsetInCU: 0x2B3BD, offset: 0x2B3BD, size: 0x8, addend: 0x0, symName: __ZN5Eigen8internal26call_dense_assignment_loopINS_5BlockINS_6MatrixIdLin1ELin1ELi0ELin1ELin1EEELi1ELin1ELb0EEES5_NS0_14swap_assign_opIdEEEEvRT_RKT0_RKT1_, symObjAddr: 0x34F4, symBinAddr: 0x10000731C, symSize: 0xB0 }
  - { offsetInCU: 0x2B3C5, offset: 0x2B3C5, size: 0x8, addend: 0x0, symName: __ZNK5Eigen9DenseBaseINS_6MatrixIdLin1ELin1ELi0ELin1ELin1EEEE9innerSizeEv, symObjAddr: 0x35A4, symBinAddr: 0x1000073CC, symSize: 0x1C }
  - { offsetInCU: 0x2B465, offset: 0x2B465, size: 0x8, addend: 0x0, symName: __ZN5Eigen8internal18check_for_aliasingINS_5BlockINS_6MatrixIdLin1ELin1ELi0ELin1ELin1EEELi1ELin1ELb0EEES5_EEvRKT_RKT0_, symObjAddr: 0x34DC, symBinAddr: 0x100007304, symSize: 0x18 }
  - { offsetInCU: 0x2B46D, offset: 0x2B46D, size: 0x8, addend: 0x0, symName: __ZN5Eigen8internal26call_dense_assignment_loopINS_5BlockINS_6MatrixIdLin1ELin1ELi0ELin1ELin1EEELi1ELin1ELb0EEES5_NS0_14swap_assign_opIdEEEEvRT_RKT0_RKT1_, symObjAddr: 0x34F4, symBinAddr: 0x10000731C, symSize: 0xB0 }
  - { offsetInCU: 0x2B449, offset: 0x2B449, size: 0x8, addend: 0x0, symName: __ZN5Eigen8internal30plainobjectbase_evaluator_dataIdLin1EEC1EPKdl, symObjAddr: 0x34A8, symBinAddr: 0x1000072D0, symSize: 0x34 }
  - { offsetInCU: 0x2B451, offset: 0x2B451, size: 0x8, addend: 0x0, symName: __ZN5Eigen8internal18check_for_aliasingINS_5BlockINS_6MatrixIdLin1ELin1ELi0ELin1ELin1EEELi1ELin1ELb0EEES5_EEvRKT_RKT0_, symObjAddr: 0x34DC, symBinAddr: 0x100007304, symSize: 0x18 }
  - { offsetInCU: 0x2B4B5, offset: 0x2B4B5, size: 0x8, addend: 0x0, symName: __ZN5Eigen8internal14evaluator_baseINS_6MatrixIdLin1ELin1ELi0ELin1ELin1EEEEC2Ev, symObjAddr: 0x3494, symBinAddr: 0x1000072BC, symSize: 0x14 }
  - { offsetInCU: 0x2B4BD, offset: 0x2B4BD, size: 0x8, addend: 0x0, symName: __ZN5Eigen8internal30plainobjectbase_evaluator_dataIdLin1EEC1EPKdl, symObjAddr: 0x34A8, symBinAddr: 0x1000072D0, symSize: 0x34 }
  - { offsetInCU: 0x2B494, offset: 0x2B494, size: 0x8, addend: 0x0, symName: __ZNK5Eigen15DenseCoeffsBaseINS_6MatrixIdLin1ELin1ELi0ELin1ELin1EEELi3EE11outerStrideEv, symObjAddr: 0x3474, symBinAddr: 0x10000729C, symSize: 0x20 }
  - { offsetInCU: 0x2B49C, offset: 0x2B49C, size: 0x8, addend: 0x0, symName: __ZN5Eigen8internal14evaluator_baseINS_6MatrixIdLin1ELin1ELi0ELin1ELin1EEEEC2Ev, symObjAddr: 0x3494, symBinAddr: 0x1000072BC, symSize: 0x14 }
  - { offsetInCU: 0x2B4C3, offset: 0x2B4C3, size: 0x8, addend: 0x0, symName: __ZNK5Eigen15PlainObjectBaseINS_6MatrixIdLin1ELin1ELi0ELin1ELin1EEEE4dataEv, symObjAddr: 0x3458, symBinAddr: 0x100007280, symSize: 0x1C }
  - { offsetInCU: 0x2B4CB, offset: 0x2B4CB, size: 0x8, addend: 0x0, symName: __ZNK5Eigen15DenseCoeffsBaseINS_6MatrixIdLin1ELin1ELi0ELin1ELin1EEELi3EE11outerStrideEv, symObjAddr: 0x3474, symBinAddr: 0x10000729C, symSize: 0x20 }
  - { offsetInCU: 0x2B4F2, offset: 0x2B4F2, size: 0x8, addend: 0x0, symName: __ZNK5Eigen8internal13scalar_max_opIddLi0EEclERKdS4_, symObjAddr: 0x3430, symBinAddr: 0x100007258, symSize: 0x28 }
  - { offsetInCU: 0x2B4FA, offset: 0x2B4FA, size: 0x8, addend: 0x0, symName: __ZNK5Eigen15PlainObjectBaseINS_6MatrixIdLin1ELin1ELi0ELin1ELin1EEEE4dataEv, symObjAddr: 0x3458, symBinAddr: 0x100007280, symSize: 0x1C }
  - { offsetInCU: 0x2B547, offset: 0x2B547, size: 0x8, addend: 0x0, symName: __ZNK5Eigen8internal15unary_evaluatorINS_12CwiseUnaryOpINS0_13scalar_abs_opIdEEKNS_5BlockINS_6MatrixIdLin1ELin1ELi0ELin1ELin1EEELi1ELin1ELb0EEEEENS0_10IndexBasedEdE5coeffEl, symObjAddr: 0x33E8, symBinAddr: 0x100007210, symSize: 0x48 }
  - { offsetInCU: 0x2B54F, offset: 0x2B54F, size: 0x8, addend: 0x0, symName: __ZNK5Eigen8internal13scalar_max_opIddLi0EEclERKdS4_, symObjAddr: 0x3430, symBinAddr: 0x100007258, symSize: 0x28 }
  - { offsetInCU: 0x2B58B, offset: 0x2B58B, size: 0x8, addend: 0x0, symName: __ZNK5Eigen9EigenBaseINS_12CwiseUnaryOpINS_8internal13scalar_abs_opIdEEKNS_5BlockINS_6MatrixIdLin1ELin1ELi0ELin1ELin1EEELi1ELin1ELb0EEEEEE4sizeEv, symObjAddr: 0x33B4, symBinAddr: 0x1000071DC, symSize: 0x34 }
  - { offsetInCU: 0x2B593, offset: 0x2B593, size: 0x8, addend: 0x0, symName: __ZNK5Eigen8internal15unary_evaluatorINS_12CwiseUnaryOpINS0_13scalar_abs_opIdEEKNS_5BlockINS_6MatrixIdLin1ELin1ELi0ELin1ELin1EEELi1ELin1ELb0EEEEENS0_10IndexBasedEdE5coeffEl, symObjAddr: 0x33E8, symBinAddr: 0x100007210, symSize: 0x48 }
  - { offsetInCU: 0x2B676, offset: 0x2B676, size: 0x8, addend: 0x0, symName: __ZN5Eigen8internal9evaluatorINS_12CwiseUnaryOpINS0_13scalar_abs_opIdEEKNS_5BlockINS_6MatrixIdLin1ELin1ELi0ELin1ELin1EEELi1ELin1ELb0EEEEEEC2ERKSA_, symObjAddr: 0x338C, symBinAddr: 0x1000071B4, symSize: 0x28 }
  - { offsetInCU: 0x2B67E, offset: 0x2B67E, size: 0x8, addend: 0x0, symName: __ZNK5Eigen9EigenBaseINS_12CwiseUnaryOpINS_8internal13scalar_abs_opIdEEKNS_5BlockINS_6MatrixIdLin1ELin1ELi0ELin1ELin1EEELi1ELin1ELb0EEEEEE4sizeEv, symObjAddr: 0x33B4, symBinAddr: 0x1000071DC, symSize: 0x34 }
  - { offsetInCU: 0x2B61E, offset: 0x2B61E, size: 0x8, addend: 0x0, symName: __ZNK5Eigen12CwiseUnaryOpINS_8internal13scalar_abs_opIdEEKNS_5BlockINS_6MatrixIdLin1ELin1ELi0ELin1ELin1EEELi1ELin1ELb0EEEE4colsEv, symObjAddr: 0x3370, symBinAddr: 0x100007198, symSize: 0x1C }
  - { offsetInCU: 0x2B626, offset: 0x2B626, size: 0x8, addend: 0x0, symName: __ZN5Eigen8internal9evaluatorINS_12CwiseUnaryOpINS0_13scalar_abs_opIdEEKNS_5BlockINS_6MatrixIdLin1ELin1ELi0ELin1ELin1EEELi1ELin1ELb0EEEEEEC2ERKSA_, symObjAddr: 0x338C, symBinAddr: 0x1000071B4, symSize: 0x28 }
  - { offsetInCU: 0x2B64D, offset: 0x2B64D, size: 0x8, addend: 0x0, symName: __ZNK5Eigen12CwiseUnaryOpINS_8internal13scalar_abs_opIdEEKNS_5BlockINS_6MatrixIdLin1ELin1ELi0ELin1ELin1EEELi1ELin1ELb0EEEE4rowsEv, symObjAddr: 0x3354, symBinAddr: 0x10000717C, symSize: 0x1C }
  - { offsetInCU: 0x2B655, offset: 0x2B655, size: 0x8, addend: 0x0, symName: __ZNK5Eigen12CwiseUnaryOpINS_8internal13scalar_abs_opIdEEKNS_5BlockINS_6MatrixIdLin1ELin1ELi0ELin1ELin1EEELi1ELin1ELb0EEEE4colsEv, symObjAddr: 0x3370, symBinAddr: 0x100007198, symSize: 0x1C }
  - { offsetInCU: 0x2B67C, offset: 0x2B67C, size: 0x8, addend: 0x0, symName: __ZN5Eigen8internal15BlockImpl_denseINS_6MatrixIdLin1ELin1ELi0ELin1ELin1EEELi1ELin1ELb0ELb1EE4initEv, symObjAddr: 0x3324, symBinAddr: 0x10000714C, symSize: 0x30 }
  - { offsetInCU: 0x2B684, offset: 0x2B684, size: 0x8, addend: 0x0, symName: __ZNK5Eigen12CwiseUnaryOpINS_8internal13scalar_abs_opIdEEKNS_5BlockINS_6MatrixIdLin1ELin1ELi0ELin1ELin1EEELi1ELin1ELb0EEEE4rowsEv, symObjAddr: 0x3354, symBinAddr: 0x10000717C, symSize: 0x1C }
  - { offsetInCU: 0x2B709, offset: 0x2B709, size: 0x8, addend: 0x0, symName: __ZN5Eigen8internal19variable_if_dynamicIlLin1EEC1El, symObjAddr: 0x3300, symBinAddr: 0x100007128, symSize: 0x24 }
  - { offsetInCU: 0x2B711, offset: 0x2B711, size: 0x8, addend: 0x0, symName: __ZN5Eigen8internal15BlockImpl_denseINS_6MatrixIdLin1ELin1ELi0ELin1ELin1EEELi1ELin1ELb0ELb1EE4initEv, symObjAddr: 0x3324, symBinAddr: 0x10000714C, symSize: 0x30 }
  - { offsetInCU: 0x2B7BC, offset: 0x2B7BC, size: 0x8, addend: 0x0, symName: __ZN5Eigen7MapBaseINS_5BlockINS_6MatrixIdLin1ELin1ELi0ELin1ELin1EEELi1ELin1ELb0EEELi1EEC2EPdll, symObjAddr: 0x32C8, symBinAddr: 0x1000070F0, symSize: 0x38 }
  - { offsetInCU: 0x2B7C4, offset: 0x2B7C4, size: 0x8, addend: 0x0, symName: __ZN5Eigen8internal19variable_if_dynamicIlLin1EEC1El, symObjAddr: 0x3300, symBinAddr: 0x100007128, symSize: 0x24 }
  - { offsetInCU: 0x2B7EC, offset: 0x2B7EC, size: 0x8, addend: 0x0, symName: __ZNK5Eigen6MatrixIdLin1ELin1ELi0ELin1ELin1EE11outerStrideEv, symObjAddr: 0x32AC, symBinAddr: 0x1000070D4, symSize: 0x1C }
  - { offsetInCU: 0x2B7F4, offset: 0x2B7F4, size: 0x8, addend: 0x0, symName: __ZN5Eigen7MapBaseINS_5BlockINS_6MatrixIdLin1ELin1ELi0ELin1ELin1EEELi1ELin1ELb0EEELi1EEC2EPdll, symObjAddr: 0x32C8, symBinAddr: 0x1000070F0, symSize: 0x38 }
  - { offsetInCU: 0x2B81B, offset: 0x2B81B, size: 0x8, addend: 0x0, symName: __ZNK5Eigen6MatrixIdLin1ELin1ELi0ELin1ELin1EE11innerStrideEv, symObjAddr: 0x3298, symBinAddr: 0x1000070C0, symSize: 0x14 }
  - { offsetInCU: 0x2B823, offset: 0x2B823, size: 0x8, addend: 0x0, symName: __ZNK5Eigen6MatrixIdLin1ELin1ELi0ELin1ELin1EE11outerStrideEv, symObjAddr: 0x32AC, symBinAddr: 0x1000070D4, symSize: 0x1C }
  - { offsetInCU: 0x2B84A, offset: 0x2B84A, size: 0x8, addend: 0x0, symName: __ZN5Eigen15PlainObjectBaseINS_6MatrixIdLin1ELin1ELi0ELin1ELin1EEEE4dataEv, symObjAddr: 0x327C, symBinAddr: 0x1000070A4, symSize: 0x1C }
  - { offsetInCU: 0x2B852, offset: 0x2B852, size: 0x8, addend: 0x0, symName: __ZNK5Eigen6MatrixIdLin1ELin1ELi0ELin1ELin1EE11innerStrideEv, symObjAddr: 0x3298, symBinAddr: 0x1000070C0, symSize: 0x14 }
  - { offsetInCU: 0x2B8D8, offset: 0x2B8D8, size: 0x8, addend: 0x0, symName: __ZN5Eigen8internal26conditional_aligned_mallocILb1EEEPvm, symObjAddr: 0x3260, symBinAddr: 0x100007088, symSize: 0x1C }
  - { offsetInCU: 0x2B8E0, offset: 0x2B8E0, size: 0x8, addend: 0x0, symName: __ZN5Eigen15PlainObjectBaseINS_6MatrixIdLin1ELin1ELi0ELin1ELin1EEEE4dataEv, symObjAddr: 0x327C, symBinAddr: 0x1000070A4, symSize: 0x1C }
  - { offsetInCU: 0x2B8F8, offset: 0x2B8F8, size: 0x8, addend: 0x0, symName: __ZN5Eigen8internal25default_max_digits10_implIdLb1ELb0EE3runEv, symObjAddr: 0x3258, symBinAddr: 0x100007080, symSize: 0x8 }
  - { offsetInCU: 0x2B900, offset: 0x2B900, size: 0x8, addend: 0x0, symName: __ZN5Eigen8internal26conditional_aligned_mallocILb1EEEPvm, symObjAddr: 0x3260, symBinAddr: 0x100007088, symSize: 0x1C }
  - { offsetInCU: 0x2B914, offset: 0x2B914, size: 0x8, addend: 0x0, symName: __ZN5Eigen8internal10AssignmentINS_5BlockINS_6MatrixIdLin1ELin1ELi0ELin1ELin1EEELi1ELin1ELb0EEES5_NS0_14swap_assign_opIdEENS0_11Dense2DenseEvE3runERS5_RKS5_RKS7_, symObjAddr: 0x321C, symBinAddr: 0x100007044, symSize: 0x3C }
  - { offsetInCU: 0x2B91C, offset: 0x2B91C, size: 0x8, addend: 0x0, symName: __ZN5Eigen8internal25default_max_digits10_implIdLb1ELb0EE3runEv, symObjAddr: 0x3258, symBinAddr: 0x100007080, symSize: 0x8 }
  - { offsetInCU: 0x2B971, offset: 0x2B971, size: 0x8, addend: 0x0, symName: __ZNK5Eigen8internal19variable_if_dynamicIlLin1EE5valueEv, symObjAddr: 0x3204, symBinAddr: 0x10000702C, symSize: 0x18 }
  - { offsetInCU: 0x2B979, offset: 0x2B979, size: 0x8, addend: 0x0, symName: __ZN5Eigen8internal10AssignmentINS_5BlockINS_6MatrixIdLin1ELin1ELi0ELin1ELin1EEELi1ELin1ELb0EEES5_NS0_14swap_assign_opIdEENS0_11Dense2DenseEvE3runERS5_RKS5_RKS7_, symObjAddr: 0x321C, symBinAddr: 0x100007044, symSize: 0x3C }
  - { offsetInCU: 0x2B9A1, offset: 0x2B9A1, size: 0x8, addend: 0x0, symName: __ZN5Eigen8internal19variable_if_dynamicIlLi1EE5valueEv, symObjAddr: 0x31FC, symBinAddr: 0x100007024, symSize: 0x8 }
  - { offsetInCU: 0x2B9A9, offset: 0x2B9A9, size: 0x8, addend: 0x0, symName: __ZNK5Eigen8internal19variable_if_dynamicIlLin1EE5valueEv, symObjAddr: 0x3204, symBinAddr: 0x10000702C, symSize: 0x18 }
  - { offsetInCU: 0x2B9BD, offset: 0x2B9BD, size: 0x8, addend: 0x0, symName: __ZNK5Eigen8internal30plainobjectbase_evaluator_dataIdLin1EE11outerStrideEv, symObjAddr: 0x31E4, symBinAddr: 0x10000700C, symSize: 0x18 }
  - { offsetInCU: 0x2B9C5, offset: 0x2B9C5, size: 0x8, addend: 0x0, symName: __ZN5Eigen8internal19variable_if_dynamicIlLi1EE5valueEv, symObjAddr: 0x31FC, symBinAddr: 0x100007024, symSize: 0x8 }
  - { offsetInCU: 0x2BA7A, offset: 0x2BA7A, size: 0x8, addend: 0x0, symName: __ZN5Eigen8internal9evaluatorINS_15PlainObjectBaseINS_6MatrixIdLin1ELin1ELi0ELin1ELin1EEEEEEC2ERKS5_, symObjAddr: 0x3190, symBinAddr: 0x100006FB8, symSize: 0x54 }
  - { offsetInCU: 0x2BA82, offset: 0x2BA82, size: 0x8, addend: 0x0, symName: __ZNK5Eigen8internal30plainobjectbase_evaluator_dataIdLin1EE11outerStrideEv, symObjAddr: 0x31E4, symBinAddr: 0x10000700C, symSize: 0x18 }
  - { offsetInCU: 0x2BA64, offset: 0x2BA64, size: 0x8, addend: 0x0, symName: __ZN5Eigen8internal10redux_implINS0_13scalar_max_opIddLi0EEENS0_15redux_evaluatorINS_12CwiseUnaryOpINS0_13scalar_abs_opIdEEKNS_5BlockINS_6MatrixIdLin1ELin1ELi0ELin1ELin1EEELi1ELin1ELb0EEEEEEELi1ELi0EE3runISD_EEdRKSE_RKS3_RKT_, symObjAddr: 0x309C, symBinAddr: 0x100006EC4, symSize: 0xF4 }
  - { offsetInCU: 0x2BA6C, offset: 0x2BA6C, size: 0x8, addend: 0x0, symName: __ZN5Eigen8internal9evaluatorINS_15PlainObjectBaseINS_6MatrixIdLin1ELin1ELi0ELin1ELin1EEEEEEC2ERKS5_, symObjAddr: 0x3190, symBinAddr: 0x100006FB8, symSize: 0x54 }
  - { offsetInCU: 0x2BBC5, offset: 0x2BBC5, size: 0x8, addend: 0x0, symName: __ZN5Eigen8internal14evaluator_baseINS_5BlockINS_6MatrixIdLin1ELin1ELi0ELin1ELin1EEELi1ELin1ELb0EEEED2Ev, symObjAddr: 0x3088, symBinAddr: 0x100006EB0, symSize: 0x14 }
  - { offsetInCU: 0x2BBCD, offset: 0x2BBCD, size: 0x8, addend: 0x0, symName: __ZN5Eigen8internal10redux_implINS0_13scalar_max_opIddLi0EEENS0_15redux_evaluatorINS_12CwiseUnaryOpINS0_13scalar_abs_opIdEEKNS_5BlockINS_6MatrixIdLin1ELin1ELi0ELin1ELin1EEELi1ELin1ELb0EEEEEEELi1ELi0EE3runISD_EEdRKSE_RKS3_RKT_, symObjAddr: 0x309C, symBinAddr: 0x100006EC4, symSize: 0xF4 }
  - { offsetInCU: 0x2BC46, offset: 0x2BC46, size: 0x8, addend: 0x0, symName: __ZN5Eigen8internal14evaluator_baseINS_12CwiseUnaryOpINS0_13scalar_abs_opIdEEKNS_5BlockINS_6MatrixIdLin1ELin1ELi0ELin1ELin1EEELi1ELin1ELb0EEEEEED2Ev, symObjAddr: 0x3074, symBinAddr: 0x100006E9C, symSize: 0x14 }
  - { offsetInCU: 0x2BC4E, offset: 0x2BC4E, size: 0x8, addend: 0x0, symName: __ZN5Eigen8internal14evaluator_baseINS_5BlockINS_6MatrixIdLin1ELin1ELi0ELin1ELin1EEELi1ELin1ELb0EEEED2Ev, symObjAddr: 0x3088, symBinAddr: 0x100006EB0, symSize: 0x14 }
  - { offsetInCU: 0x2BCA4, offset: 0x2BCA4, size: 0x8, addend: 0x0, symName: __ZN5Eigen8internal15redux_evaluatorINS_12CwiseUnaryOpINS0_13scalar_abs_opIdEEKNS_5BlockINS_6MatrixIdLin1ELin1ELi0ELin1ELin1EEELi1ELin1ELb0EEEEEEC1ERKSA_, symObjAddr: 0x304C, symBinAddr: 0x100006E74, symSize: 0x28 }
  - { offsetInCU: 0x2BCAC, offset: 0x2BCAC, size: 0x8, addend: 0x0, symName: __ZN5Eigen8internal14evaluator_baseINS_12CwiseUnaryOpINS0_13scalar_abs_opIdEEKNS_5BlockINS_6MatrixIdLin1ELin1ELi0ELin1ELin1EEELi1ELin1ELb0EEEEEED2Ev, symObjAddr: 0x3074, symBinAddr: 0x100006E9C, symSize: 0x14 }
  - { offsetInCU: 0x2BC45, offset: 0x2BC45, size: 0x8, addend: 0x0, symName: __ZNK5Eigen9EigenBaseINS_12CwiseUnaryOpINS_8internal13scalar_abs_opIdEEKNS_5BlockINS_6MatrixIdLin1ELin1ELi0ELin1ELin1EEELi1ELin1ELb0EEEEEE4colsEv, symObjAddr: 0x302C, symBinAddr: 0x100006E54, symSize: 0x20 }
  - { offsetInCU: 0x2BC4D, offset: 0x2BC4D, size: 0x8, addend: 0x0, symName: __ZN5Eigen8internal15redux_evaluatorINS_12CwiseUnaryOpINS0_13scalar_abs_opIdEEKNS_5BlockINS_6MatrixIdLin1ELin1ELi0ELin1ELin1EEELi1ELin1ELb0EEEEEEC1ERKSA_, symObjAddr: 0x304C, symBinAddr: 0x100006E74, symSize: 0x28 }
  - { offsetInCU: 0x2BC74, offset: 0x2BC74, size: 0x8, addend: 0x0, symName: __ZNK5Eigen9EigenBaseINS_12CwiseUnaryOpINS_8internal13scalar_abs_opIdEEKNS_5BlockINS_6MatrixIdLin1ELin1ELi0ELin1ELin1EEELi1ELin1ELb0EEEEEE4rowsEv, symObjAddr: 0x300C, symBinAddr: 0x100006E34, symSize: 0x20 }
  - { offsetInCU: 0x2BC7C, offset: 0x2BC7C, size: 0x8, addend: 0x0, symName: __ZNK5Eigen9EigenBaseINS_12CwiseUnaryOpINS_8internal13scalar_abs_opIdEEKNS_5BlockINS_6MatrixIdLin1ELin1ELi0ELin1ELin1EEELi1ELin1ELb0EEEEEE4colsEv, symObjAddr: 0x302C, symBinAddr: 0x100006E54, symSize: 0x20 }
  - { offsetInCU: 0x2BD45, offset: 0x2BD45, size: 0x8, addend: 0x0, symName: __ZN5Eigen8internal15BlockImpl_denseINS_6MatrixIdLin1ELin1ELi0ELin1ELin1EEELi1ELin1ELb0ELb1EEC2ERS3_l, symObjAddr: 0x2F40, symBinAddr: 0x100006D68, symSize: 0xCC }
  - { offsetInCU: 0x2BD4D, offset: 0x2BD4D, size: 0x8, addend: 0x0, symName: __ZNK5Eigen9EigenBaseINS_12CwiseUnaryOpINS_8internal13scalar_abs_opIdEEKNS_5BlockINS_6MatrixIdLin1ELin1ELi0ELin1ELin1EEELi1ELin1ELb0EEEEEE4rowsEv, symObjAddr: 0x300C, symBinAddr: 0x100006E34, symSize: 0x20 }
  - { offsetInCU: 0x2BDC5, offset: 0x2BDC5, size: 0x8, addend: 0x0, symName: __ZN5Eigen8internal28conditional_aligned_new_autoIdLb1EEEPT_m, symObjAddr: 0x2EE4, symBinAddr: 0x100006D0C, symSize: 0x5C }
  - { offsetInCU: 0x2BDCD, offset: 0x2BDCD, size: 0x8, addend: 0x0, symName: __ZN5Eigen8internal15BlockImpl_denseINS_6MatrixIdLin1ELin1ELi0ELin1ELin1EEELi1ELin1ELb0ELb1EEC2ERS3_l, symObjAddr: 0x2F40, symBinAddr: 0x100006D68, symSize: 0xCC }
  - { offsetInCU: 0x2BDED, offset: 0x2BDED, size: 0x8, addend: 0x0, symName: __ZNK5Eigen12DenseStorageIdLin1ELin1ELin1ELi0EE4dataEv, symObjAddr: 0x2ECC, symBinAddr: 0x100006CF4, symSize: 0x18 }
  - { offsetInCU: 0x2BDF5, offset: 0x2BDF5, size: 0x8, addend: 0x0, symName: __ZN5Eigen8internal28conditional_aligned_new_autoIdLb1EEEPT_m, symObjAddr: 0x2EE4, symBinAddr: 0x100006D0C, symSize: 0x5C }
  - { offsetInCU: 0x2BE1D, offset: 0x2BE1D, size: 0x8, addend: 0x0, symName: __ZN5Eigen16GenericNumTraitsIdE12max_digits10Ev, symObjAddr: 0x2EB8, symBinAddr: 0x100006CE0, symSize: 0x14 }
  - { offsetInCU: 0x2BE25, offset: 0x2BE25, size: 0x8, addend: 0x0, symName: __ZNK5Eigen12DenseStorageIdLin1ELin1ELin1ELi0EE4dataEv, symObjAddr: 0x2ECC, symBinAddr: 0x100006CF4, symSize: 0x18 }
  - { offsetInCU: 0x2BF8C, offset: 0x2BF8C, size: 0x8, addend: 0x0, symName: __ZN5Eigen8internal24call_assignment_no_aliasINS_5BlockINS_6MatrixIdLin1ELin1ELi0ELin1ELin1EEELi1ELin1ELb0EEES5_NS0_14swap_assign_opIdEEEEvRT_RKT0_RKT1_, symObjAddr: 0x2E80, symBinAddr: 0x100006CA8, symSize: 0x38 }
  - { offsetInCU: 0x2BF94, offset: 0x2BF94, size: 0x8, addend: 0x0, symName: __ZN5Eigen16GenericNumTraitsIdE12max_digits10Ev, symObjAddr: 0x2EB8, symBinAddr: 0x100006CE0, symSize: 0x14 }
  - { offsetInCU: 0x2BF07, offset: 0x2BF07, size: 0x8, addend: 0x0, symName: __ZNK5Eigen7MapBaseINS_5BlockINS_6MatrixIdLin1ELin1ELi0ELin1ELin1EEELi1ELin1ELb0EEELi0EE4colsEv, symObjAddr: 0x2E60, symBinAddr: 0x100006C88, symSize: 0x20 }
  - { offsetInCU: 0x2BF0F, offset: 0x2BF0F, size: 0x8, addend: 0x0, symName: __ZN5Eigen8internal24call_assignment_no_aliasINS_5BlockINS_6MatrixIdLin1ELin1ELi0ELin1ELin1EEELi1ELin1ELb0EEES5_NS0_14swap_assign_opIdEEEEvRT_RKT0_RKT1_, symObjAddr: 0x2E80, symBinAddr: 0x100006CA8, symSize: 0x38 }
  - { offsetInCU: 0x2BF36, offset: 0x2BF36, size: 0x8, addend: 0x0, symName: __ZNK5Eigen7MapBaseINS_5BlockINS_6MatrixIdLin1ELin1ELi0ELin1ELin1EEELi1ELin1ELb0EEELi0EE4rowsEv, symObjAddr: 0x2E48, symBinAddr: 0x100006C70, symSize: 0x18 }
  - { offsetInCU: 0x2BF3E, offset: 0x2BF3E, size: 0x8, addend: 0x0, symName: __ZNK5Eigen7MapBaseINS_5BlockINS_6MatrixIdLin1ELin1ELi0ELin1ELin1EEELi1ELin1ELb0EEELi0EE4colsEv, symObjAddr: 0x2E60, symBinAddr: 0x100006C88, symSize: 0x20 }
  - { offsetInCU: 0x2BF65, offset: 0x2BF65, size: 0x8, addend: 0x0, symName: __ZN5Eigen8internal9evaluatorINS_15PlainObjectBaseINS_6MatrixIdLin1ELin1ELi0ELin1ELin1EEEEEE8coeffRefEll, symObjAddr: 0x2DF8, symBinAddr: 0x100006C20, symSize: 0x50 }
  - { offsetInCU: 0x2BF6D, offset: 0x2BF6D, size: 0x8, addend: 0x0, symName: __ZNK5Eigen7MapBaseINS_5BlockINS_6MatrixIdLin1ELin1ELi0ELin1ELin1EEELi1ELin1ELb0EEELi0EE4rowsEv, symObjAddr: 0x2E48, symBinAddr: 0x100006C70, symSize: 0x18 }
  - { offsetInCU: 0x2C030, offset: 0x2C030, size: 0x8, addend: 0x0, symName: __ZN5Eigen8internal14evaluator_baseINS_6MatrixIdLin1ELin1ELi0ELin1ELin1EEEED2Ev, symObjAddr: 0x2DE4, symBinAddr: 0x100006C0C, symSize: 0x14 }
  - { offsetInCU: 0x2C038, offset: 0x2C038, size: 0x8, addend: 0x0, symName: __ZN5Eigen8internal9evaluatorINS_15PlainObjectBaseINS_6MatrixIdLin1ELin1ELi0ELin1ELin1EEEEEE8coeffRefEll, symObjAddr: 0x2DF8, symBinAddr: 0x100006C20, symSize: 0x50 }
  - { offsetInCU: 0x2C087, offset: 0x2C087, size: 0x8, addend: 0x0, symName: __ZN5Eigen8internal9evaluatorINS_6MatrixIdLin1ELin1ELi0ELin1ELin1EEEEC1ERKS3_, symObjAddr: 0x2DBC, symBinAddr: 0x100006BE4, symSize: 0x28 }
  - { offsetInCU: 0x2C08F, offset: 0x2C08F, size: 0x8, addend: 0x0, symName: __ZN5Eigen8internal14evaluator_baseINS_6MatrixIdLin1ELin1ELi0ELin1ELin1EEEED2Ev, symObjAddr: 0x2DE4, symBinAddr: 0x100006C0C, symSize: 0x14 }
  - { offsetInCU: 0x2C074, offset: 0x2C074, size: 0x8, addend: 0x0, symName: __ZNK5Eigen9DenseBaseINS_12CwiseUnaryOpINS_8internal13scalar_abs_opIdEEKNS_5BlockINS_6MatrixIdLin1ELin1ELi0ELin1ELin1EEELi1ELin1ELb0EEEEEE5reduxINS2_13scalar_max_opIddLi0EEEEEdRKT_, symObjAddr: 0x2CA8, symBinAddr: 0x100006AD0, symSize: 0x114 }
  - { offsetInCU: 0x2C07C, offset: 0x2C07C, size: 0x8, addend: 0x0, symName: __ZN5Eigen8internal9evaluatorINS_6MatrixIdLin1ELin1ELi0ELin1ELin1EEEEC1ERKS3_, symObjAddr: 0x2DBC, symBinAddr: 0x100006BE4, symSize: 0x28 }
  - { offsetInCU: 0x2C1E1, offset: 0x2C1E1, size: 0x8, addend: 0x0, symName: __ZN5Eigen8internal15redux_evaluatorINS_12CwiseUnaryOpINS0_13scalar_abs_opIdEEKNS_5BlockINS_6MatrixIdLin1ELin1ELi0ELin1ELin1EEELi1ELin1ELb0EEEEEED1Ev, symObjAddr: 0x2C88, symBinAddr: 0x100006AB0, symSize: 0x20 }
  - { offsetInCU: 0x2C1E9, offset: 0x2C1E9, size: 0x8, addend: 0x0, symName: __ZNK5Eigen9DenseBaseINS_12CwiseUnaryOpINS_8internal13scalar_abs_opIdEEKNS_5BlockINS_6MatrixIdLin1ELin1ELi0ELin1ELin1EEELi1ELin1ELb0EEEEEE5reduxINS2_13scalar_max_opIddLi0EEEEEdRKT_, symObjAddr: 0x2CA8, symBinAddr: 0x100006AD0, symSize: 0x114 }
  - { offsetInCU: 0x2C233, offset: 0x2C233, size: 0x8, addend: 0x0, symName: __ZN5Eigen8internal9evaluatorINS_12CwiseUnaryOpINS0_13scalar_abs_opIdEEKNS_5BlockINS_6MatrixIdLin1ELin1ELi0ELin1ELin1EEELi1ELin1ELb0EEEEEED2Ev, symObjAddr: 0x2C68, symBinAddr: 0x100006A90, symSize: 0x20 }
  - { offsetInCU: 0x2C23B, offset: 0x2C23B, size: 0x8, addend: 0x0, symName: __ZN5Eigen8internal15redux_evaluatorINS_12CwiseUnaryOpINS0_13scalar_abs_opIdEEKNS_5BlockINS_6MatrixIdLin1ELin1ELi0ELin1ELin1EEELi1ELin1ELb0EEEEEED1Ev, symObjAddr: 0x2C88, symBinAddr: 0x100006AB0, symSize: 0x20 }
  - { offsetInCU: 0x2C2A6, offset: 0x2C2A6, size: 0x8, addend: 0x0, symName: __ZN5Eigen8internal15unary_evaluatorINS_12CwiseUnaryOpINS0_13scalar_abs_opIdEEKNS_5BlockINS_6MatrixIdLin1ELin1ELi0ELin1ELin1EEELi1ELin1ELb0EEEEENS0_10IndexBasedEdED2Ev, symObjAddr: 0x2C40, symBinAddr: 0x100006A68, symSize: 0x28 }
  - { offsetInCU: 0x2C2AE, offset: 0x2C2AE, size: 0x8, addend: 0x0, symName: __ZN5Eigen8internal9evaluatorINS_12CwiseUnaryOpINS0_13scalar_abs_opIdEEKNS_5BlockINS_6MatrixIdLin1ELin1ELi0ELin1ELin1EEELi1ELin1ELb0EEEEEED2Ev, symObjAddr: 0x2C68, symBinAddr: 0x100006A90, symSize: 0x20 }
  - { offsetInCU: 0x2C305, offset: 0x2C305, size: 0x8, addend: 0x0, symName: __ZN5Eigen8internal15unary_evaluatorINS_12CwiseUnaryOpINS0_13scalar_abs_opIdEEKNS_5BlockINS_6MatrixIdLin1ELin1ELi0ELin1ELin1EEELi1ELin1ELb0EEEEENS0_10IndexBasedEdE4DataD1Ev, symObjAddr: 0x2C1C, symBinAddr: 0x100006A44, symSize: 0x24 }
  - { offsetInCU: 0x2C30D, offset: 0x2C30D, size: 0x8, addend: 0x0, symName: __ZN5Eigen8internal15unary_evaluatorINS_12CwiseUnaryOpINS0_13scalar_abs_opIdEEKNS_5BlockINS_6MatrixIdLin1ELin1ELi0ELin1ELin1EEELi1ELin1ELb0EEEEENS0_10IndexBasedEdED2Ev, symObjAddr: 0x2C40, symBinAddr: 0x100006A68, symSize: 0x28 }
  - { offsetInCU: 0x2C315, offset: 0x2C315, size: 0x8, addend: 0x0, symName: __ZN5Eigen8internal9evaluatorIKNS_5BlockINS_6MatrixIdLin1ELin1ELi0ELin1ELin1EEELi1ELin1ELb0EEEED1Ev, symObjAddr: 0x2BFC, symBinAddr: 0x100006A24, symSize: 0x20 }
  - { offsetInCU: 0x2C31D, offset: 0x2C31D, size: 0x8, addend: 0x0, symName: __ZN5Eigen8internal15unary_evaluatorINS_12CwiseUnaryOpINS0_13scalar_abs_opIdEEKNS_5BlockINS_6MatrixIdLin1ELin1ELi0ELin1ELin1EEELi1ELin1ELb0EEEEENS0_10IndexBasedEdE4DataD1Ev, symObjAddr: 0x2C1C, symBinAddr: 0x100006A44, symSize: 0x24 }
  - { offsetInCU: 0x2C36E, offset: 0x2C36E, size: 0x8, addend: 0x0, symName: __ZN5Eigen8internal9evaluatorINS_5BlockINS_6MatrixIdLin1ELin1ELi0ELin1ELin1EEELi1ELin1ELb0EEEED1Ev, symObjAddr: 0x2BDC, symBinAddr: 0x100006A04, symSize: 0x20 }
  - { offsetInCU: 0x2C376, offset: 0x2C376, size: 0x8, addend: 0x0, symName: __ZN5Eigen8internal9evaluatorIKNS_5BlockINS_6MatrixIdLin1ELin1ELi0ELin1ELin1EEELi1ELin1ELb0EEEED1Ev, symObjAddr: 0x2BFC, symBinAddr: 0x100006A24, symSize: 0x20 }
  - { offsetInCU: 0x2C39C, offset: 0x2C39C, size: 0x8, addend: 0x0, symName: __ZN5Eigen8internal9evaluatorINS_5BlockINS_6MatrixIdLin1ELin1ELi0ELin1ELin1EEELi1ELin1ELb0EEEED2Ev, symObjAddr: 0x2BBC, symBinAddr: 0x1000069E4, symSize: 0x20 }
  - { offsetInCU: 0x2C3A4, offset: 0x2C3A4, size: 0x8, addend: 0x0, symName: __ZN5Eigen8internal9evaluatorINS_5BlockINS_6MatrixIdLin1ELin1ELi0ELin1ELin1EEELi1ELin1ELb0EEEED1Ev, symObjAddr: 0x2BDC, symBinAddr: 0x100006A04, symSize: 0x20 }
  - { offsetInCU: 0x2C3F5, offset: 0x2C3F5, size: 0x8, addend: 0x0, symName: __ZN5Eigen8internal15block_evaluatorINS_6MatrixIdLin1ELin1ELi0ELin1ELin1EEELi1ELin1ELb0ELb1EED2Ev, symObjAddr: 0x2B9C, symBinAddr: 0x1000069C4, symSize: 0x20 }
  - { offsetInCU: 0x2C3FD, offset: 0x2C3FD, size: 0x8, addend: 0x0, symName: __ZN5Eigen8internal9evaluatorINS_5BlockINS_6MatrixIdLin1ELin1ELi0ELin1ELin1EEELi1ELin1ELb0EEEED2Ev, symObjAddr: 0x2BBC, symBinAddr: 0x1000069E4, symSize: 0x20 }
  - { offsetInCU: 0x2C477, offset: 0x2C477, size: 0x8, addend: 0x0, symName: __ZN5Eigen8internal17mapbase_evaluatorINS_5BlockINS_6MatrixIdLin1ELin1ELi0ELin1ELin1EEELi1ELin1ELb0EEENS3_IdLi1ELin1ELi1ELi1ELin1EEEED2Ev, symObjAddr: 0x2B7C, symBinAddr: 0x1000069A4, symSize: 0x20 }
  - { offsetInCU: 0x2C47F, offset: 0x2C47F, size: 0x8, addend: 0x0, symName: __ZN5Eigen8internal15block_evaluatorINS_6MatrixIdLin1ELin1ELi0ELin1ELin1EEELi1ELin1ELb0ELb1EED2Ev, symObjAddr: 0x2B9C, symBinAddr: 0x1000069C4, symSize: 0x20 }
  - { offsetInCU: 0x2C41C, offset: 0x2C41C, size: 0x8, addend: 0x0, symName: __ZNK5Eigen9EigenBaseINS_12CwiseUnaryOpINS_8internal13scalar_abs_opIdEEKNS_5BlockINS_6MatrixIdLin1ELin1ELi0ELin1ELin1EEELi1ELin1ELb0EEEEEE7derivedEv, symObjAddr: 0x2B68, symBinAddr: 0x100006990, symSize: 0x14 }
  - { offsetInCU: 0x2C424, offset: 0x2C424, size: 0x8, addend: 0x0, symName: __ZN5Eigen8internal17mapbase_evaluatorINS_5BlockINS_6MatrixIdLin1ELin1ELi0ELin1ELin1EEELi1ELin1ELb0EEENS3_IdLi1ELin1ELi1ELi1ELin1EEEED2Ev, symObjAddr: 0x2B7C, symBinAddr: 0x1000069A4, symSize: 0x20 }
  - { offsetInCU: 0x2C4F1, offset: 0x2C4F1, size: 0x8, addend: 0x0, symName: __ZN5Eigen9DenseBaseINS_12CwiseUnaryOpINS_8internal13scalar_abs_opIdEEKNS_5BlockINS_6MatrixIdLin1ELin1ELi0ELin1ELin1EEELi1ELin1ELb0EEEEEEC2Ev, symObjAddr: 0x2B54, symBinAddr: 0x10000697C, symSize: 0x14 }
  - { offsetInCU: 0x2C4F9, offset: 0x2C4F9, size: 0x8, addend: 0x0, symName: __ZNK5Eigen9EigenBaseINS_12CwiseUnaryOpINS_8internal13scalar_abs_opIdEEKNS_5BlockINS_6MatrixIdLin1ELin1ELi0ELin1ELin1EEELi1ELin1ELb0EEEEEE7derivedEv, symObjAddr: 0x2B68, symBinAddr: 0x100006990, symSize: 0x14 }
  - { offsetInCU: 0x2C528, offset: 0x2C528, size: 0x8, addend: 0x0, symName: __ZN5Eigen9BlockImplINS_6MatrixIdLin1ELin1ELi0ELin1ELin1EEELi1ELin1ELb0ENS_5DenseEEC2ERS2_l, symObjAddr: 0x2B24, symBinAddr: 0x10000694C, symSize: 0x30 }
  - { offsetInCU: 0x2C530, offset: 0x2C530, size: 0x8, addend: 0x0, symName: __ZN5Eigen9DenseBaseINS_12CwiseUnaryOpINS_8internal13scalar_abs_opIdEEKNS_5BlockINS_6MatrixIdLin1ELin1ELi0ELin1ELin1EEELi1ELin1ELb0EEEEEEC2Ev, symObjAddr: 0x2B54, symBinAddr: 0x10000697C, symSize: 0x14 }
  - { offsetInCU: 0x2C513, offset: 0x2C513, size: 0x8, addend: 0x0, symName: __ZN5Eigen12DenseStorageIdLin1ELin1ELin1ELi0EE6resizeElll, symObjAddr: 0x2A74, symBinAddr: 0x10000689C, symSize: 0xB0 }
  - { offsetInCU: 0x2C51B, offset: 0x2C51B, size: 0x8, addend: 0x0, symName: __ZN5Eigen9BlockImplINS_6MatrixIdLin1ELin1ELi0ELin1ELin1EEELi1ELin1ELb0ENS_5DenseEEC2ERS2_l, symObjAddr: 0x2B24, symBinAddr: 0x10000694C, symSize: 0x30 }
  - { offsetInCU: 0x2C68C, offset: 0x2C68C, size: 0x8, addend: 0x0, symName: __ZSt3maxIlERKT_S2_S2_, symObjAddr: 0x2A3C, symBinAddr: 0x100006864, symSize: 0x38 }
  - { offsetInCU: 0x2C694, offset: 0x2C694, size: 0x8, addend: 0x0, symName: __ZN5Eigen12DenseStorageIdLin1ELin1ELin1ELi0EE6resizeElll, symObjAddr: 0x2A74, symBinAddr: 0x10000689C, symSize: 0xB0 }
  - { offsetInCU: 0x2C6C5, offset: 0x2C6C5, size: 0x8, addend: 0x0, symName: __ZNK5Eigen15PlainObjectBaseINS_6MatrixIdLin1ELin1ELi0ELin1ELin1EEEE5coeffEll, symObjAddr: 0x29E8, symBinAddr: 0x100006810, symSize: 0x54 }
  - { offsetInCU: 0x2C6CD, offset: 0x2C6CD, size: 0x8, addend: 0x0, symName: __ZSt3maxIlERKT_S2_S2_, symObjAddr: 0x2A3C, symBinAddr: 0x100006864, symSize: 0x38 }
  - { offsetInCU: 0x2C725, offset: 0x2C725, size: 0x8, addend: 0x0, symName: __ZN5Eigen8internal25significant_decimals_implIdE3runEv, symObjAddr: 0x29D4, symBinAddr: 0x1000067FC, symSize: 0x14 }
  - { offsetInCU: 0x2C72D, offset: 0x2C72D, size: 0x8, addend: 0x0, symName: __ZNK5Eigen15PlainObjectBaseINS_6MatrixIdLin1ELin1ELi0ELin1ELin1EEEE5coeffEll, symObjAddr: 0x29E8, symBinAddr: 0x100006810, symSize: 0x54 }
  - { offsetInCU: 0x2C742, offset: 0x2C742, size: 0x8, addend: 0x0, symName: __ZNK5Eigen9EigenBaseINS_6MatrixIdLin1ELin1ELi0ELin1ELin1EEEE4sizeEv, symObjAddr: 0x29A0, symBinAddr: 0x1000067C8, symSize: 0x34 }
  - { offsetInCU: 0x2C74A, offset: 0x2C74A, size: 0x8, addend: 0x0, symName: __ZN5Eigen8internal25significant_decimals_implIdE3runEv, symObjAddr: 0x29D4, symBinAddr: 0x1000067FC, symSize: 0x14 }
  - { offsetInCU: 0x2C771, offset: 0x2C771, size: 0x8, addend: 0x0, symName: __ZNK5Eigen9EigenBaseINS_6MatrixIdLin1ELin1ELi0ELin1ELin1EEEE7derivedEv, symObjAddr: 0x298C, symBinAddr: 0x1000067B4, symSize: 0x14 }
  - { offsetInCU: 0x2C779, offset: 0x2C779, size: 0x8, addend: 0x0, symName: __ZNK5Eigen9EigenBaseINS_6MatrixIdLin1ELin1ELi0ELin1ELin1EEEE4sizeEv, symObjAddr: 0x29A0, symBinAddr: 0x1000067C8, symSize: 0x34 }
  - { offsetInCU: 0x2C94A, offset: 0x2C94A, size: 0x8, addend: 0x0, symName: __ZN5Eigen8internal15call_assignmentINS_5BlockINS_6MatrixIdLin1ELin1ELi0ELin1ELin1EEELi1ELin1ELb0EEES5_NS0_14swap_assign_opIdEEEEvRT_RKT0_RKT1_NSt9enable_ifIXntsrNS0_25evaluator_assume_aliasingISA_NS0_16evaluator_traitsISA_E5ShapeEEE5valueEPvE4typeE, symObjAddr: 0x2958, symBinAddr: 0x100006780, symSize: 0x34 }
  - { offsetInCU: 0x2C952, offset: 0x2C952, size: 0x8, addend: 0x0, symName: __ZNK5Eigen9EigenBaseINS_6MatrixIdLin1ELin1ELi0ELin1ELin1EEEE7derivedEv, symObjAddr: 0x298C, symBinAddr: 0x1000067B4, symSize: 0x14 }
  - { offsetInCU: 0x2C837, offset: 0x2C837, size: 0x8, addend: 0x0, symName: __ZNK5Eigen9EigenBaseINS_5BlockINS_6MatrixIdLin1ELin1ELi0ELin1ELin1EEELi1ELin1ELb0EEEE18const_cast_derivedEv, symObjAddr: 0x2944, symBinAddr: 0x10000676C, symSize: 0x14 }
  - { offsetInCU: 0x2C83F, offset: 0x2C83F, size: 0x8, addend: 0x0, symName: __ZN5Eigen8internal15call_assignmentINS_5BlockINS_6MatrixIdLin1ELin1ELi0ELin1ELin1EEELi1ELin1ELb0EEES5_NS0_14swap_assign_opIdEEEEvRT_RKT0_RKT1_NSt9enable_ifIXntsrNS0_25evaluator_assume_aliasingISA_NS0_16evaluator_traitsISA_E5ShapeEEE5valueEPvE4typeE, symObjAddr: 0x2958, symBinAddr: 0x100006780, symSize: 0x34 }
  - { offsetInCU: 0x2C866, offset: 0x2C866, size: 0x8, addend: 0x0, symName: __ZN5Eigen9EigenBaseINS_5BlockINS_6MatrixIdLin1ELin1ELi0ELin1ELin1EEELi1ELin1ELb0EEEE7derivedEv, symObjAddr: 0x2930, symBinAddr: 0x100006758, symSize: 0x14 }
  - { offsetInCU: 0x2C86E, offset: 0x2C86E, size: 0x8, addend: 0x0, symName: __ZNK5Eigen9EigenBaseINS_5BlockINS_6MatrixIdLin1ELin1ELi0ELin1ELin1EEELi1ELin1ELb0EEEE18const_cast_derivedEv, symObjAddr: 0x2944, symBinAddr: 0x10000676C, symSize: 0x14 }
  - { offsetInCU: 0x2C895, offset: 0x2C895, size: 0x8, addend: 0x0, symName: __ZNK5Eigen9EigenBaseINS_5BlockINS_6MatrixIdLin1ELin1ELi0ELin1ELin1EEELi1ELin1ELb0EEEE4colsEv, symObjAddr: 0x2910, symBinAddr: 0x100006738, symSize: 0x20 }
  - { offsetInCU: 0x2C89D, offset: 0x2C89D, size: 0x8, addend: 0x0, symName: __ZN5Eigen9EigenBaseINS_5BlockINS_6MatrixIdLin1ELin1ELi0ELin1ELin1EEELi1ELin1ELb0EEEE7derivedEv, symObjAddr: 0x2930, symBinAddr: 0x100006758, symSize: 0x14 }
  - { offsetInCU: 0x2C8C4, offset: 0x2C8C4, size: 0x8, addend: 0x0, symName: __ZNK5Eigen9EigenBaseINS_5BlockINS_6MatrixIdLin1ELin1ELi0ELin1ELin1EEELi1ELin1ELb0EEEE4rowsEv, symObjAddr: 0x28F0, symBinAddr: 0x100006718, symSize: 0x20 }
  - { offsetInCU: 0x2C8CC, offset: 0x2C8CC, size: 0x8, addend: 0x0, symName: __ZNK5Eigen9EigenBaseINS_5BlockINS_6MatrixIdLin1ELin1ELi0ELin1ELin1EEELi1ELin1ELb0EEEE4colsEv, symObjAddr: 0x2910, symBinAddr: 0x100006738, symSize: 0x20 }
  - { offsetInCU: 0x2C8F3, offset: 0x2C8F3, size: 0x8, addend: 0x0, symName: __ZN5Eigen15DenseCoeffsBaseINS_6MatrixIdLin1ELin1ELi0ELin1ELin1EEELi1EE8coeffRefEll, symObjAddr: 0x287C, symBinAddr: 0x1000066A4, symSize: 0x74 }
  - { offsetInCU: 0x2C8FB, offset: 0x2C8FB, size: 0x8, addend: 0x0, symName: __ZNK5Eigen9EigenBaseINS_5BlockINS_6MatrixIdLin1ELin1ELi0ELin1ELin1EEELi1ELin1ELb0EEEE4rowsEv, symObjAddr: 0x28F0, symBinAddr: 0x100006718, symSize: 0x20 }
  - { offsetInCU: 0x2C9C0, offset: 0x2C9C0, size: 0x8, addend: 0x0, symName: __ZN5Eigen8internal9evaluatorINS_6MatrixIdLin1ELin1ELi0ELin1ELin1EEEED1Ev, symObjAddr: 0x285C, symBinAddr: 0x100006684, symSize: 0x20 }
  - { offsetInCU: 0x2C9C8, offset: 0x2C9C8, size: 0x8, addend: 0x0, symName: __ZN5Eigen15DenseCoeffsBaseINS_6MatrixIdLin1ELin1ELi0ELin1ELin1EEELi1EE8coeffRefEll, symObjAddr: 0x287C, symBinAddr: 0x1000066A4, symSize: 0x74 }
  - { offsetInCU: 0x2CA30, offset: 0x2CA30, size: 0x8, addend: 0x0, symName: __ZN5Eigen8internal9evaluatorINS_15PlainObjectBaseINS_6MatrixIdLin1ELin1ELi0ELin1ELin1EEEEEED2Ev, symObjAddr: 0x283C, symBinAddr: 0x100006664, symSize: 0x20 }
  - { offsetInCU: 0x2CA38, offset: 0x2CA38, size: 0x8, addend: 0x0, symName: __ZN5Eigen8internal9evaluatorINS_6MatrixIdLin1ELin1ELi0ELin1ELin1EEEED1Ev, symObjAddr: 0x285C, symBinAddr: 0x100006684, symSize: 0x20 }
  - { offsetInCU: 0x2C9FE, offset: 0x2C9FE, size: 0x8, addend: 0x0, symName: __ZNK5Eigen9EigenBaseINS_6MatrixIdLin1ELin1ELi0ELin1ELin1EEEE4colsEv, symObjAddr: 0x281C, symBinAddr: 0x100006644, symSize: 0x20 }
  - { offsetInCU: 0x2CA06, offset: 0x2CA06, size: 0x8, addend: 0x0, symName: __ZN5Eigen8internal9evaluatorINS_15PlainObjectBaseINS_6MatrixIdLin1ELin1ELi0ELin1ELin1EEEEEED2Ev, symObjAddr: 0x283C, symBinAddr: 0x100006664, symSize: 0x20 }
  - { offsetInCU: 0x2CA2D, offset: 0x2CA2D, size: 0x8, addend: 0x0, symName: __ZNK5Eigen9EigenBaseINS_6MatrixIdLin1ELin1ELi0ELin1ELin1EEEE4rowsEv, symObjAddr: 0x27FC, symBinAddr: 0x100006624, symSize: 0x20 }
  - { offsetInCU: 0x2CA35, offset: 0x2CA35, size: 0x8, addend: 0x0, symName: __ZNK5Eigen9EigenBaseINS_6MatrixIdLin1ELin1ELi0ELin1ELin1EEEE4colsEv, symObjAddr: 0x281C, symBinAddr: 0x100006644, symSize: 0x20 }
  - { offsetInCU: 0x2CA5C, offset: 0x2CA5C, size: 0x8, addend: 0x0, symName: __ZNK5Eigen9DenseBaseINS_12CwiseUnaryOpINS_8internal13scalar_abs_opIdEEKNS_5BlockINS_6MatrixIdLin1ELin1ELi0ELin1ELin1EEELi1ELin1ELb0EEEEEE8maxCoeffILi0EEEdv, symObjAddr: 0x27CC, symBinAddr: 0x1000065F4, symSize: 0x30 }
  - { offsetInCU: 0x2CA64, offset: 0x2CA64, size: 0x8, addend: 0x0, symName: __ZNK5Eigen9EigenBaseINS_6MatrixIdLin1ELin1ELi0ELin1ELin1EEEE4rowsEv, symObjAddr: 0x27FC, symBinAddr: 0x100006624, symSize: 0x20 }
  - { offsetInCU: 0x2CB59, offset: 0x2CB59, size: 0x8, addend: 0x0, symName: __ZN5Eigen12CwiseUnaryOpINS_8internal13scalar_abs_opIdEEKNS_5BlockINS_6MatrixIdLin1ELin1ELi0ELin1ELin1EEELi1ELin1ELb0EEEEC1ERS8_RKS3_, symObjAddr: 0x2784, symBinAddr: 0x1000065AC, symSize: 0x48 }
  - { offsetInCU: 0x2CB61, offset: 0x2CB61, size: 0x8, addend: 0x0, symName: __ZNK5Eigen9DenseBaseINS_12CwiseUnaryOpINS_8internal13scalar_abs_opIdEEKNS_5BlockINS_6MatrixIdLin1ELin1ELi0ELin1ELin1EEELi1ELin1ELb0EEEEEE8maxCoeffILi0EEEdv, symObjAddr: 0x27CC, symBinAddr: 0x1000065F4, symSize: 0x30 }
  - { offsetInCU: 0x2CBD5, offset: 0x2CBD5, size: 0x8, addend: 0x0, symName: __ZN5Eigen16CwiseUnaryOpImplINS_8internal13scalar_abs_opIdEEKNS_5BlockINS_6MatrixIdLin1ELin1ELi0ELin1ELin1EEELi1ELin1ELb0EEENS_5DenseEEC2Ev, symObjAddr: 0x2764, symBinAddr: 0x10000658C, symSize: 0x20 }
  - { offsetInCU: 0x2CBDD, offset: 0x2CBDD, size: 0x8, addend: 0x0, symName: __ZN5Eigen12CwiseUnaryOpINS_8internal13scalar_abs_opIdEEKNS_5BlockINS_6MatrixIdLin1ELin1ELi0ELin1ELin1EEELi1ELin1ELb0EEEEC1ERS8_RKS3_, symObjAddr: 0x2784, symBinAddr: 0x1000065AC, symSize: 0x48 }
  - { offsetInCU: 0x2CC20, offset: 0x2CC20, size: 0x8, addend: 0x0, symName: __ZN5Eigen10MatrixBaseINS_12CwiseUnaryOpINS_8internal13scalar_abs_opIdEEKNS_5BlockINS_6MatrixIdLin1ELin1ELi0ELin1ELin1EEELi1ELin1ELb0EEEEEEC2Ev, symObjAddr: 0x2744, symBinAddr: 0x10000656C, symSize: 0x20 }
  - { offsetInCU: 0x2CC28, offset: 0x2CC28, size: 0x8, addend: 0x0, symName: __ZN5Eigen16CwiseUnaryOpImplINS_8internal13scalar_abs_opIdEEKNS_5BlockINS_6MatrixIdLin1ELin1ELi0ELin1ELin1EEELi1ELin1ELb0EEENS_5DenseEEC2Ev, symObjAddr: 0x2764, symBinAddr: 0x10000658C, symSize: 0x20 }
  - { offsetInCU: 0x2CBBF, offset: 0x2CBBF, size: 0x8, addend: 0x0, symName: __ZNK5Eigen9EigenBaseINS_5BlockINS_6MatrixIdLin1ELin1ELi0ELin1ELin1EEELi1ELin1ELb0EEEE7derivedEv, symObjAddr: 0x2730, symBinAddr: 0x100006558, symSize: 0x14 }
  - { offsetInCU: 0x2CBC7, offset: 0x2CBC7, size: 0x8, addend: 0x0, symName: __ZN5Eigen10MatrixBaseINS_12CwiseUnaryOpINS_8internal13scalar_abs_opIdEEKNS_5BlockINS_6MatrixIdLin1ELin1ELi0ELin1ELin1EEELi1ELin1ELb0EEEEEEC2Ev, symObjAddr: 0x2744, symBinAddr: 0x10000656C, symSize: 0x20 }
  - { offsetInCU: 0x2CC85, offset: 0x2CC85, size: 0x8, addend: 0x0, symName: __ZN5Eigen5BlockINS_6MatrixIdLin1ELin1ELi0ELin1ELin1EEELi1ELin1ELb0EEC1ERS2_l, symObjAddr: 0x2688, symBinAddr: 0x1000064B0, symSize: 0xA8 }
  - { offsetInCU: 0x2CC8D, offset: 0x2CC8D, size: 0x8, addend: 0x0, symName: __ZNK5Eigen9EigenBaseINS_5BlockINS_6MatrixIdLin1ELin1ELi0ELin1ELin1EEELi1ELin1ELb0EEEE7derivedEv, symObjAddr: 0x2730, symBinAddr: 0x100006558, symSize: 0x14 }
  - { offsetInCU: 0x2CC92, offset: 0x2CC92, size: 0x8, addend: 0x0, symName: __ZN5Eigen9EigenBaseINS_6MatrixIdLin1ELin1ELi0ELin1ELin1EEEE7derivedEv, symObjAddr: 0x2674, symBinAddr: 0x10000649C, symSize: 0x14 }
  - { offsetInCU: 0x2CC9A, offset: 0x2CC9A, size: 0x8, addend: 0x0, symName: __ZN5Eigen5BlockINS_6MatrixIdLin1ELin1ELi0ELin1ELin1EEELi1ELin1ELb0EEC1ERS2_l, symObjAddr: 0x2688, symBinAddr: 0x1000064B0, symSize: 0xA8 }
  - { offsetInCU: 0x2CCC1, offset: 0x2CCC1, size: 0x8, addend: 0x0, symName: __ZN5Eigen12DenseStorageIdLin1ELin1ELin1ELi0EE4dataEv, symObjAddr: 0x265C, symBinAddr: 0x100006484, symSize: 0x18 }
  - { offsetInCU: 0x2CCC9, offset: 0x2CCC9, size: 0x8, addend: 0x0, symName: __ZN5Eigen9EigenBaseINS_6MatrixIdLin1ELin1ELi0ELin1ELin1EEEE7derivedEv, symObjAddr: 0x2674, symBinAddr: 0x10000649C, symSize: 0x14 }
  - { offsetInCU: 0x2CCF0, offset: 0x2CCF0, size: 0x8, addend: 0x0, symName: __ZNK5Eigen12DenseStorageIdLin1ELin1ELin1ELi0EE4rowsEv, symObjAddr: 0x2644, symBinAddr: 0x10000646C, symSize: 0x18 }
  - { offsetInCU: 0x2CCF8, offset: 0x2CCF8, size: 0x8, addend: 0x0, symName: __ZN5Eigen12DenseStorageIdLin1ELin1ELin1ELi0EE4dataEv, symObjAddr: 0x265C, symBinAddr: 0x100006484, symSize: 0x18 }
  - { offsetInCU: 0x2CD1F, offset: 0x2CD1F, size: 0x8, addend: 0x0, symName: __ZNK5Eigen12DenseStorageIdLin1ELin1ELin1ELi0EE4colsEv, symObjAddr: 0x262C, symBinAddr: 0x100006454, symSize: 0x18 }
  - { offsetInCU: 0x2CD27, offset: 0x2CD27, size: 0x8, addend: 0x0, symName: __ZNK5Eigen12DenseStorageIdLin1ELin1ELin1ELi0EE4rowsEv, symObjAddr: 0x2644, symBinAddr: 0x10000646C, symSize: 0x18 }
  - { offsetInCU: 0x2CDA5, offset: 0x2CDA5, size: 0x8, addend: 0x0, symName: __ZN5Eigen8internal24conditional_aligned_freeILb1EEEvPv, symObjAddr: 0x260C, symBinAddr: 0x100006434, symSize: 0x20 }
  - { offsetInCU: 0x2CDAD, offset: 0x2CDAD, size: 0x8, addend: 0x0, symName: __ZNK5Eigen12DenseStorageIdLin1ELin1ELin1ELi0EE4colsEv, symObjAddr: 0x262C, symBinAddr: 0x100006454, symSize: 0x18 }
  - { offsetInCU: 0x2CD95, offset: 0x2CD95, size: 0x8, addend: 0x0, symName: __ZN5Eigen15PlainObjectBaseINS_6MatrixIdLin1ELin1ELi0ELin1ELin1EEEE6resizeEll, symObjAddr: 0x23BC, symBinAddr: 0x1000061E4, symSize: 0x250 }
  - { offsetInCU: 0x2CD9D, offset: 0x2CD9D, size: 0x8, addend: 0x0, symName: __ZN5Eigen8internal24conditional_aligned_freeILb1EEEvPv, symObjAddr: 0x260C, symBinAddr: 0x100006434, symSize: 0x20 }
  - { offsetInCU: 0x2CEBB, offset: 0x2CEBB, size: 0x8, addend: 0x0, symName: __ZN5Eigen12DenseStorageIdLin1ELin1ELin1ELi0EEC1Ev, symObjAddr: 0x2390, symBinAddr: 0x1000061B8, symSize: 0x2C }
  - { offsetInCU: 0x2CEC3, offset: 0x2CEC3, size: 0x8, addend: 0x0, symName: __ZN5Eigen15PlainObjectBaseINS_6MatrixIdLin1ELin1ELi0ELin1ELin1EEEE6resizeEll, symObjAddr: 0x23BC, symBinAddr: 0x1000061E4, symSize: 0x250 }
  - { offsetInCU: 0x2CF10, offset: 0x2CF10, size: 0x8, addend: 0x0, symName: __ZN5Eigen9DenseBaseINS_6MatrixIdLin1ELin1ELi0ELin1ELin1EEEEC2Ev, symObjAddr: 0x237C, symBinAddr: 0x1000061A4, symSize: 0x14 }
  - { offsetInCU: 0x2CF18, offset: 0x2CF18, size: 0x8, addend: 0x0, symName: __ZN5Eigen12DenseStorageIdLin1ELin1ELin1ELi0EEC1Ev, symObjAddr: 0x2390, symBinAddr: 0x1000061B8, symSize: 0x2C }
  - { offsetInCU: 0x2CFF3, offset: 0x2CFF3, size: 0x8, addend: 0x0, symName: __ZN5Eigen8internal12print_matrixINS_6MatrixIdLin1ELin1ELi0ELin1ELin1EEEEERSoS4_RKT_RKNS_8IOFormatE, symObjAddr: 0x1E28, symBinAddr: 0x100005C50, symSize: 0x554 }
  - { offsetInCU: 0x2CFFB, offset: 0x2CFFB, size: 0x8, addend: 0x0, symName: __ZN5Eigen9DenseBaseINS_6MatrixIdLin1ELin1ELi0ELin1ELin1EEEEC2Ev, symObjAddr: 0x237C, symBinAddr: 0x1000061A4, symSize: 0x14 }
  - { offsetInCU: 0x2D15E, offset: 0x2D15E, size: 0x8, addend: 0x0, symName: __ZNK5Eigen9DenseBaseINS_6MatrixIdLin1ELin1ELi0ELin1ELin1EEEE4evalEv, symObjAddr: 0x1E0C, symBinAddr: 0x100005C34, symSize: 0x1C }
  - { offsetInCU: 0x2D166, offset: 0x2D166, size: 0x8, addend: 0x0, symName: __ZN5Eigen8internal12print_matrixINS_6MatrixIdLin1ELin1ELi0ELin1ELin1EEEEERSoS4_RKT_RKNS_8IOFormatE, symObjAddr: 0x1E28, symBinAddr: 0x100005C50, symSize: 0x554 }
  - { offsetInCU: 0x2D18D, offset: 0x2D18D, size: 0x8, addend: 0x0, symName: __ZN5Eigen9DenseBaseINS_5BlockINS_6MatrixIdLin1ELin1ELi0ELin1ELin1EEELi1ELin1ELb0EEEE4swapIS4_EEvRKNS0_IT_EE, symObjAddr: 0x1D2C, symBinAddr: 0x100005B54, symSize: 0xE0 }
  - { offsetInCU: 0x2D195, offset: 0x2D195, size: 0x8, addend: 0x0, symName: __ZNK5Eigen9DenseBaseINS_6MatrixIdLin1ELin1ELi0ELin1ELin1EEEE4evalEv, symObjAddr: 0x1E0C, symBinAddr: 0x100005C34, symSize: 0x1C }
  - { offsetInCU: 0x2D21E, offset: 0x2D21E, size: 0x8, addend: 0x0, symName: __ZN5Eigen15DenseCoeffsBaseINS_6MatrixIdLin1ELin1ELi0ELin1ELin1EEELi1EEclEll, symObjAddr: 0x1C18, symBinAddr: 0x100005A40, symSize: 0x114 }
  - { offsetInCU: 0x2D226, offset: 0x2D226, size: 0x8, addend: 0x0, symName: __ZN5Eigen9DenseBaseINS_5BlockINS_6MatrixIdLin1ELin1ELi0ELin1ELin1EEELi1ELin1ELb0EEEE4swapIS4_EEvRKNS0_IT_EE, symObjAddr: 0x1D2C, symBinAddr: 0x100005B54, symSize: 0xE0 }
  - { offsetInCU: 0x2D2AD, offset: 0x2D2AD, size: 0x8, addend: 0x0, symName: __ZNK5Eigen9DenseBaseINS_12CwiseUnaryOpINS_8internal13scalar_abs_opIdEEKNS_5BlockINS_6MatrixIdLin1ELin1ELi0ELin1ELin1EEELi1ELin1ELb0EEEEEE8maxCoeffEv, symObjAddr: 0x1BFC, symBinAddr: 0x100005A24, symSize: 0x1C }
  - { offsetInCU: 0x2D2B5, offset: 0x2D2B5, size: 0x8, addend: 0x0, symName: __ZN5Eigen15DenseCoeffsBaseINS_6MatrixIdLin1ELin1ELi0ELin1ELin1EEELi1EEclEll, symObjAddr: 0x1C18, symBinAddr: 0x100005A40, symSize: 0x114 }
  - { offsetInCU: 0x2D2DC, offset: 0x2D2DC, size: 0x8, addend: 0x0, symName: __ZNK5Eigen10MatrixBaseINS_5BlockINS_6MatrixIdLin1ELin1ELi0ELin1ELin1EEELi1ELin1ELb0EEEE8cwiseAbsEv, symObjAddr: 0x1BC0, symBinAddr: 0x1000059E8, symSize: 0x3C }
  - { offsetInCU: 0x2D2E4, offset: 0x2D2E4, size: 0x8, addend: 0x0, symName: __ZNK5Eigen9DenseBaseINS_12CwiseUnaryOpINS_8internal13scalar_abs_opIdEEKNS_5BlockINS_6MatrixIdLin1ELin1ELi0ELin1ELin1EEELi1ELin1ELb0EEEEEE8maxCoeffEv, symObjAddr: 0x1BFC, symBinAddr: 0x100005A24, symSize: 0x1C }
  - { offsetInCU: 0x2D30B, offset: 0x2D30B, size: 0x8, addend: 0x0, symName: __ZN5Eigen9DenseBaseINS_6MatrixIdLin1ELin1ELi0ELin1ELin1EEEE3rowEl, symObjAddr: 0x1B84, symBinAddr: 0x1000059AC, symSize: 0x3C }
  - { offsetInCU: 0x2D313, offset: 0x2D313, size: 0x8, addend: 0x0, symName: __ZNK5Eigen10MatrixBaseINS_5BlockINS_6MatrixIdLin1ELin1ELi0ELin1ELin1EEELi1ELin1ELb0EEEE8cwiseAbsEv, symObjAddr: 0x1BC0, symBinAddr: 0x1000059E8, symSize: 0x3C }
  - { offsetInCU: 0x2D34F, offset: 0x2D34F, size: 0x8, addend: 0x0, symName: __ZN5Eigen15PlainObjectBaseINS_6MatrixIdLin1ELin1ELi0ELin1ELin1EEEE8coeffRefEll, symObjAddr: 0x1B30, symBinAddr: 0x100005958, symSize: 0x54 }
  - { offsetInCU: 0x2D357, offset: 0x2D357, size: 0x8, addend: 0x0, symName: __ZN5Eigen9DenseBaseINS_6MatrixIdLin1ELin1ELi0ELin1ELin1EEEE3rowEl, symObjAddr: 0x1B84, symBinAddr: 0x1000059AC, symSize: 0x3C }
  - { offsetInCU: 0x2D3A4, offset: 0x2D3A4, size: 0x8, addend: 0x0, symName: __ZNK5Eigen15PlainObjectBaseINS_6MatrixIdLin1ELin1ELi0ELin1ELin1EEEE4rowsEv, symObjAddr: 0x1B14, symBinAddr: 0x10000593C, symSize: 0x1C }
  - { offsetInCU: 0x2D3AC, offset: 0x2D3AC, size: 0x8, addend: 0x0, symName: __ZN5Eigen15PlainObjectBaseINS_6MatrixIdLin1ELin1ELi0ELin1ELin1EEEE8coeffRefEll, symObjAddr: 0x1B30, symBinAddr: 0x100005958, symSize: 0x54 }
  - { offsetInCU: 0x2D3D3, offset: 0x2D3D3, size: 0x8, addend: 0x0, symName: __ZNK5Eigen15PlainObjectBaseINS_6MatrixIdLin1ELin1ELi0ELin1ELin1EEEE4colsEv, symObjAddr: 0x1AF8, symBinAddr: 0x100005920, symSize: 0x1C }
  - { offsetInCU: 0x2D3DB, offset: 0x2D3DB, size: 0x8, addend: 0x0, symName: __ZNK5Eigen15PlainObjectBaseINS_6MatrixIdLin1ELin1ELi0ELin1ELin1EEEE4rowsEv, symObjAddr: 0x1B14, symBinAddr: 0x10000593C, symSize: 0x1C }
  - { offsetInCU: 0x2D402, offset: 0x2D402, size: 0x8, addend: 0x0, symName: __ZN5Eigen16CommaInitializerINS_6MatrixIdLin1ELin1ELi0ELin1ELin1EEEE8finishedEv, symObjAddr: 0x19E4, symBinAddr: 0x10000580C, symSize: 0x114 }
  - { offsetInCU: 0x2D40A, offset: 0x2D40A, size: 0x8, addend: 0x0, symName: __ZNK5Eigen15PlainObjectBaseINS_6MatrixIdLin1ELin1ELi0ELin1ELin1EEEE4colsEv, symObjAddr: 0x1AF8, symBinAddr: 0x100005920, symSize: 0x1C }
  - { offsetInCU: 0x2D51C, offset: 0x2D51C, size: 0x8, addend: 0x0, symName: __ZN5Eigen16CommaInitializerINS_6MatrixIdLin1ELin1ELi0ELin1ELin1EEEEC1ERS2_RKd, symObjAddr: 0x18D8, symBinAddr: 0x100005700, symSize: 0x10C }
  - { offsetInCU: 0x2D524, offset: 0x2D524, size: 0x8, addend: 0x0, symName: __ZN5Eigen16CommaInitializerINS_6MatrixIdLin1ELin1ELi0ELin1ELin1EEEE8finishedEv, symObjAddr: 0x19E4, symBinAddr: 0x10000580C, symSize: 0x114 }
  - { offsetInCU: 0x2D598, offset: 0x2D598, size: 0x8, addend: 0x0, symName: __ZN5Eigen8internal31conditional_aligned_delete_autoIdLb1EEEvPT_m, symObjAddr: 0x18B4, symBinAddr: 0x1000056DC, symSize: 0x24 }
  - { offsetInCU: 0x2D5A0, offset: 0x2D5A0, size: 0x8, addend: 0x0, symName: __ZN5Eigen16CommaInitializerINS_6MatrixIdLin1ELin1ELi0ELin1ELin1EEEEC1ERS2_RKd, symObjAddr: 0x18D8, symBinAddr: 0x100005700, symSize: 0x10C }
  - { offsetInCU: 0x2D5AC, offset: 0x2D5AC, size: 0x8, addend: 0x0, symName: __ZN5Eigen15PlainObjectBaseINS_6MatrixIdLin1ELin1ELi0ELin1ELin1EEEE6_init2IllEEvllPNSt9enable_ifILb1ET_E4typeE, symObjAddr: 0x1880, symBinAddr: 0x1000056A8, symSize: 0x34 }
  - { offsetInCU: 0x2D5B4, offset: 0x2D5B4, size: 0x8, addend: 0x0, symName: __ZN5Eigen8internal31conditional_aligned_delete_autoIdLb1EEEvPT_m, symObjAddr: 0x18B4, symBinAddr: 0x1000056DC, symSize: 0x24 }
  - { offsetInCU: 0x2D68C, offset: 0x2D68C, size: 0x8, addend: 0x0, symName: __ZN5Eigen15PlainObjectBaseINS_6MatrixIdLin1ELin1ELi0ELin1ELin1EEEEC2Ev, symObjAddr: 0x1858, symBinAddr: 0x100005680, symSize: 0x28 }
  - { offsetInCU: 0x2D694, offset: 0x2D694, size: 0x8, addend: 0x0, symName: __ZN5Eigen15PlainObjectBaseINS_6MatrixIdLin1ELin1ELi0ELin1ELin1EEEE6_init2IllEEvllPNSt9enable_ifILb1ET_E4typeE, symObjAddr: 0x1880, symBinAddr: 0x1000056A8, symSize: 0x34 }
  - { offsetInCU: 0x2D6CE, offset: 0x2D6CE, size: 0x8, addend: 0x0, symName: __ZN5Eigen10MatrixBaseINS_6MatrixIdLin1ELin1ELi0ELin1ELin1EEEEC2Ev, symObjAddr: 0x1838, symBinAddr: 0x100005660, symSize: 0x20 }
  - { offsetInCU: 0x2D6D6, offset: 0x2D6D6, size: 0x8, addend: 0x0, symName: __ZN5Eigen15PlainObjectBaseINS_6MatrixIdLin1ELin1ELi0ELin1ELin1EEEEC2Ev, symObjAddr: 0x1858, symBinAddr: 0x100005680, symSize: 0x28 }
  - { offsetInCU: 0x2D6BA, offset: 0x2D6BA, size: 0x8, addend: 0x0, symName: __ZNSt7__cxx1112basic_stringIcSt11char_traitsIcESaIcEE12_M_constructIPKcEEvT_S8_St20forward_iterator_tag, symObjAddr: 0x1750, symBinAddr: 0x100005578, symSize: 0xE8 }
  - { offsetInCU: 0x2D6C2, offset: 0x2D6C2, size: 0x8, addend: 0x0, symName: __ZN5Eigen10MatrixBaseINS_6MatrixIdLin1ELin1ELi0ELin1ELin1EEEEC2Ev, symObjAddr: 0x1838, symBinAddr: 0x100005660, symSize: 0x20 }
  - { offsetInCU: 0x2D875, offset: 0x2D875, size: 0x8, addend: 0x0, symName: __ZZNSt7__cxx1112basic_stringIcSt11char_traitsIcESaIcEE12_M_constructIPKcEEvT_S8_St20forward_iterator_tagEN6_GuardC1EPS4_, symObjAddr: 0x16F8, symBinAddr: 0x100005520, symSize: 0x24 }
  - { offsetInCU: 0x2D87D, offset: 0x2D87D, size: 0x8, addend: 0x0, symName: __ZZNSt7__cxx1112basic_stringIcSt11char_traitsIcESaIcEE12_M_constructIPKcEEvT_S8_St20forward_iterator_tagEN6_GuardD1Ev, symObjAddr: 0x171C, symBinAddr: 0x100005544, symSize: 0x34 }
  - { offsetInCU: 0x2D8AD, offset: 0x2D8AD, size: 0x8, addend: 0x0, symName: __ZZNSt7__cxx1112basic_stringIcSt11char_traitsIcESaIcEE12_M_constructIPKcEEvT_S8_St20forward_iterator_tagEN6_GuardD1Ev, symObjAddr: 0x171C, symBinAddr: 0x100005544, symSize: 0x34 }
  - { offsetInCU: 0x2D8B5, offset: 0x2D8B5, size: 0x8, addend: 0x0, symName: __ZNSt7__cxx1112basic_stringIcSt11char_traitsIcESaIcEE12_M_constructIPKcEEvT_S8_St20forward_iterator_tag, symObjAddr: 0x1750, symBinAddr: 0x100005578, symSize: 0xE8 }
  - { offsetInCU: 0x2D978, offset: 0x2D978, size: 0x8, addend: 0x0, symName: __ZNSt15__new_allocatorIcED2Ev, symObjAddr: 0x16E4, symBinAddr: 0x10000550C, symSize: 0x14 }
  - { offsetInCU: 0x2D980, offset: 0x2D980, size: 0x8, addend: 0x0, symName: __ZZNSt7__cxx1112basic_stringIcSt11char_traitsIcESaIcEE12_M_constructIPKcEEvT_S8_St20forward_iterator_tagEN6_GuardC1EPS4_, symObjAddr: 0x16F8, symBinAddr: 0x100005520, symSize: 0x24 }
  - { offsetInCU: 0x2D9A1, offset: 0x2D9A1, size: 0x8, addend: 0x0, symName: __ZN9__gnu_cxx11char_traitsIcE2eqERKcS3_, symObjAddr: 0x16B4, symBinAddr: 0x1000054DC, symSize: 0x30 }
  - { offsetInCU: 0x2D9A9, offset: 0x2D9A9, size: 0x8, addend: 0x0, symName: __ZNSt15__new_allocatorIcED2Ev, symObjAddr: 0x16E4, symBinAddr: 0x10000550C, symSize: 0x14 }
  - { offsetInCU: 0x2DA61, offset: 0x2DA61, size: 0x8, addend: 0x0, symName: __Z7backsubIN5Eigen6MatrixIdLin1ELin1ELi0ELin1ELin1EEEEvRNS0_10MatrixBaseIT_EEiPiPd, symObjAddr: 0x147C, symBinAddr: 0x1000052A4, symSize: 0x238 }
  - { offsetInCU: 0x2DA69, offset: 0x2DA69, size: 0x8, addend: 0x0, symName: __ZN9__gnu_cxx11char_traitsIcE2eqERKcS3_, symObjAddr: 0x16B4, symBinAddr: 0x1000054DC, symSize: 0x30 }
  - { offsetInCU: 0x2DB5C, offset: 0x2DB5C, size: 0x8, addend: 0x0, symName: __ZN5EigenlsINS_6MatrixIdLin1ELin1ELi0ELin1ELin1EEEEERSoS3_RKNS_9DenseBaseIT_EE, symObjAddr: 0x118C, symBinAddr: 0x100004FB4, symSize: 0x2F0 }
  - { offsetInCU: 0x2DB64, offset: 0x2DB64, size: 0x8, addend: 0x0, symName: __Z7backsubIN5Eigen6MatrixIdLin1ELin1ELi0ELin1ELin1EEEEvRNS0_10MatrixBaseIT_EEiPiPd, symObjAddr: 0x147C, symBinAddr: 0x1000052A4, symSize: 0x238 }
  - { offsetInCU: 0x2DEE9, offset: 0x2DEE9, size: 0x8, addend: 0x0, symName: __ZN5Eigen8IOFormatD1Ev, symObjAddr: 0x1124, symBinAddr: 0x100004F4C, symSize: 0x68 }
  - { offsetInCU: 0x2DEF1, offset: 0x2DEF1, size: 0x8, addend: 0x0, symName: __ZN5EigenlsINS_6MatrixIdLin1ELin1ELi0ELin1ELin1EEEEERSoS3_RKNS_9DenseBaseIT_EE, symObjAddr: 0x118C, symBinAddr: 0x100004FB4, symSize: 0x2F0 }
  - { offsetInCU: 0x2DF00, offset: 0x2DF00, size: 0x8, addend: 0x0, symName: __ZN5Eigen16CommaInitializerINS_6MatrixIdLin1ELin1ELi0ELin1ELin1EEEEcmERKd, symObjAddr: 0xC5C, symBinAddr: 0x100004A84, symSize: 0x1D4 }
  - { offsetInCU: 0x2DF08, offset: 0x2DF08, size: 0x8, addend: 0x0, symName: __Z8PCludcmpIN5Eigen6MatrixIdLin1ELin1ELi0ELin1ELin1EEEEvRNS0_10MatrixBaseIT_EElPi, symObjAddr: 0xE30, symBinAddr: 0x100004C58, symSize: 0x2F4 }
  - { offsetInCU: 0x2DFE7, offset: 0x2DFE7, size: 0x8, addend: 0x0, symName: __ZN5Eigen16CommaInitializerINS_6MatrixIdLin1ELin1ELi0ELin1ELin1EEEED1Ev, symObjAddr: 0xC3C, symBinAddr: 0x100004A64, symSize: 0x20 }
  - { offsetInCU: 0x2DFEF, offset: 0x2DFEF, size: 0x8, addend: 0x0, symName: __ZN5Eigen16CommaInitializerINS_6MatrixIdLin1ELin1ELi0ELin1ELin1EEEEcmERKd, symObjAddr: 0xC5C, symBinAddr: 0x100004A84, symSize: 0x1D4 }
  - { offsetInCU: 0x2DFCD, offset: 0x2DFCD, size: 0x8, addend: 0x0, symName: __ZN5Eigen9DenseBaseINS_6MatrixIdLin1ELin1ELi0ELin1ELin1EEEElsERKd, symObjAddr: 0xC04, symBinAddr: 0x100004A2C, symSize: 0x38 }
  - { offsetInCU: 0x2DFD5, offset: 0x2DFD5, size: 0x8, addend: 0x0, symName: __ZN5Eigen16CommaInitializerINS_6MatrixIdLin1ELin1ELi0ELin1ELin1EEEED1Ev, symObjAddr: 0xC3C, symBinAddr: 0x100004A64, symSize: 0x20 }
  - { offsetInCU: 0x2E068, offset: 0x2E068, size: 0x8, addend: 0x0, symName: __ZN5Eigen12DenseStorageIdLin1ELin1ELin1ELi0EED1Ev, symObjAddr: 0xBC4, symBinAddr: 0x1000049EC, symSize: 0x40 }
  - { offsetInCU: 0x2E070, offset: 0x2E070, size: 0x8, addend: 0x0, symName: __ZN5Eigen9DenseBaseINS_6MatrixIdLin1ELin1ELi0ELin1ELin1EEEElsERKd, symObjAddr: 0xC04, symBinAddr: 0x100004A2C, symSize: 0x38 }
  - { offsetInCU: 0x2E0F7, offset: 0x2E0F7, size: 0x8, addend: 0x0, symName: __ZN5Eigen6MatrixIdLin1ELin1ELi0ELin1ELin1EEC1IllEERKT_RKT0_, symObjAddr: 0xB5C, symBinAddr: 0x100004984, symSize: 0x68 }
  - { offsetInCU: 0x2E0FF, offset: 0x2E0FF, size: 0x8, addend: 0x0, symName: __ZN5Eigen12DenseStorageIdLin1ELin1ELin1ELi0EED1Ev, symObjAddr: 0xBC4, symBinAddr: 0x1000049EC, symSize: 0x40 }
  - { offsetInCU: 0x2E1B3, offset: 0x2E1B3, size: 0x8, addend: 0x0, symName: __ZNSt7__cxx1112basic_stringIcSt11char_traitsIcESaIcEEC1IS3_EEPKcRKS3_, symObjAddr: 0xAC0, symBinAddr: 0x1000048E8, symSize: 0x9C }
  - { offsetInCU: 0x2E1BB, offset: 0x2E1BB, size: 0x8, addend: 0x0, symName: __ZN5Eigen6MatrixIdLin1ELin1ELi0ELin1ELin1EEC1IllEERKT_RKT0_, symObjAddr: 0xB5C, symBinAddr: 0x100004984, symSize: 0x68 }
  - { offsetInCU: 0x2E263, offset: 0x2E263, size: 0x8, addend: 0x0, symName: __ZNSt7__cxx1112basic_stringIcSt11char_traitsIcESaIcEE12_Alloc_hiderD1Ev, symObjAddr: 0xA94, symBinAddr: 0x1000048BC, symSize: 0x2C }
  - { offsetInCU: 0x2E26B, offset: 0x2E26B, size: 0x8, addend: 0x0, symName: __ZNSt7__cxx1112basic_stringIcSt11char_traitsIcESaIcEEC1IS3_EEPKcRKS3_, symObjAddr: 0xAC0, symBinAddr: 0x1000048E8, symSize: 0x9C }
  - { offsetInCU: 0x2E315, offset: 0x2E315, size: 0x8, addend: 0x0, symName: __ZN9__gnu_cxx6__stoaIlicJiEEET0_PFT_PKT1_PPS3_DpT2_EPKcS5_PmS9_, symObjAddr: 0x98C, symBinAddr: 0x1000047B4, symSize: 0x108 }
  - { offsetInCU: 0x2E31D, offset: 0x2E31D, size: 0x8, addend: 0x0, symName: __ZNSt7__cxx1112basic_stringIcSt11char_traitsIcESaIcEE12_Alloc_hiderD1Ev, symObjAddr: 0xA94, symBinAddr: 0x1000048BC, symSize: 0x2C }
  - { offsetInCU: 0x2E496, offset: 0x2E496, size: 0x8, addend: 0x0, symName: __ZZN9__gnu_cxx6__stoaIlicJiEEET0_PFT_PKT1_PPS3_DpT2_EPKcS5_PmS9_EN11_Save_errnoC1Ev, symObjAddr: 0x8CC, symBinAddr: 0x1000046F4, symSize: 0x30 }
  - { offsetInCU: 0x2E49E, offset: 0x2E49E, size: 0x8, addend: 0x0, symName: __ZZN9__gnu_cxx6__stoaIlicJiEEET0_PFT_PKT1_PPS3_DpT2_EPKcS5_PmS9_EN11_Save_errnoD1Ev, symObjAddr: 0x8FC, symBinAddr: 0x100004724, symSize: 0x50 }
  - { offsetInCU: 0x2E4C5, offset: 0x2E4C5, size: 0x8, addend: 0x0, symName: __ZZN9__gnu_cxx6__stoaIlicJiEEET0_PFT_PKT1_PPS3_DpT2_EPKcS5_PmS9_EN11_Save_errnoD1Ev, symObjAddr: 0x8FC, symBinAddr: 0x100004724, symSize: 0x50 }
  - { offsetInCU: 0x2E4CD, offset: 0x2E4CD, size: 0x8, addend: 0x0, symName: __ZZN9__gnu_cxx6__stoaIlicJiEEET0_PFT_PKT1_PPS3_DpT2_EPKcS5_PmS9_EN10_Range_chk6_S_chkElSt17integral_constantIbLb1EE, symObjAddr: 0x94C, symBinAddr: 0x100004774, symSize: 0x40 }
  - { offsetInCU: 0x2E564, offset: 0x2E564, size: 0x8, addend: 0x0, symName: __ZZN9__gnu_cxx6__stoaIlicJiEEET0_PFT_PKT1_PPS3_DpT2_EPKcS5_PmS9_EN10_Range_chk6_S_chkElSt17integral_constantIbLb1EE, symObjAddr: 0x94C, symBinAddr: 0x100004774, symSize: 0x40 }
  - { offsetInCU: 0x2E56C, offset: 0x2E56C, size: 0x8, addend: 0x0, symName: __ZN9__gnu_cxx6__stoaIlicJiEEET0_PFT_PKT1_PPS3_DpT2_EPKcS5_PmS9_, symObjAddr: 0x98C, symBinAddr: 0x1000047B4, symSize: 0x108 }
  - { offsetInCU: 0x2E57C, offset: 0x2E57C, size: 0x8, addend: 0x0, symName: __ZN9__gnu_cxx11char_traitsIcE6lengthEPKc, symObjAddr: 0x870, symBinAddr: 0x100004698, symSize: 0x5C }
  - { offsetInCU: 0x2E584, offset: 0x2E584, size: 0x8, addend: 0x0, symName: __ZZN9__gnu_cxx6__stoaIlicJiEEET0_PFT_PKT1_PPS3_DpT2_EPKcS5_PmS9_EN11_Save_errnoC1Ev, symObjAddr: 0x8CC, symBinAddr: 0x1000046F4, symSize: 0x30 }
  - { offsetInCU: 0x2E5CA, offset: 0x2E5CA, size: 0x8, addend: 0x0, symName: _main, symObjAddr: 0x558, symBinAddr: 0x100004380, symSize: 0x318 }
  - { offsetInCU: 0x2E5D2, offset: 0x2E5D2, size: 0x8, addend: 0x0, symName: __ZN9__gnu_cxx11char_traitsIcE6lengthEPKc, symObjAddr: 0x870, symBinAddr: 0x100004698, symSize: 0x5C }
  - { offsetInCU: 0x2E75C, offset: 0x2E75C, size: 0x8, addend: 0x0, symName: __ZN5Eigen6MatrixIdLin1ELin1ELi0ELin1ELin1EED1Ev, symObjAddr: 0x538, symBinAddr: 0x100004360, symSize: 0x20 }
  - { offsetInCU: 0x2E764, offset: 0x2E764, size: 0x8, addend: 0x0, symName: _main, symObjAddr: 0x558, symBinAddr: 0x100004380, symSize: 0x318 }
  - { offsetInCU: 0x2E7CC, offset: 0x2E7CC, size: 0x8, addend: 0x0, symName: __ZN5Eigen15PlainObjectBaseINS_6MatrixIdLin1ELin1ELi0ELin1ELin1EEEED2Ev, symObjAddr: 0x518, symBinAddr: 0x100004340, symSize: 0x20 }
  - { offsetInCU: 0x2E7D4, offset: 0x2E7D4, size: 0x8, addend: 0x0, symName: __ZN5Eigen6MatrixIdLin1ELin1ELi0ELin1ELin1EED1Ev, symObjAddr: 0x538, symBinAddr: 0x100004360, symSize: 0x20 }
  - { offsetInCU: 0x2E8D6, offset: 0x2E8D6, size: 0x8, addend: 0x0, symName: __ZN5Eigen8IOFormatC1EiiRKNSt7__cxx1112basic_stringIcSt11char_traitsIcESaIcEEES8_S8_S8_S8_S8_c, symObjAddr: 0x2FC, symBinAddr: 0x100004124, symSize: 0x21C }
  - { offsetInCU: 0x2E8DE, offset: 0x2E8DE, size: 0x8, addend: 0x0, symName: __ZN5Eigen15PlainObjectBaseINS_6MatrixIdLin1ELin1ELi0ELin1ELin1EEEED2Ev, symObjAddr: 0x518, symBinAddr: 0x100004340, symSize: 0x20 }
  - { offsetInCU: 0x2EA16, offset: 0x2EA16, size: 0x8, addend: 0x0, symName: __ZN5Eigen8internal12aligned_freeEPv, symObjAddr: 0x2CC, symBinAddr: 0x1000040F4, symSize: 0x30 }
  - { offsetInCU: 0x2EA1E, offset: 0x2EA1E, size: 0x8, addend: 0x0, symName: __ZN5Eigen8IOFormatC1EiiRKNSt7__cxx1112basic_stringIcSt11char_traitsIcESaIcEEES8_S8_S8_S8_S8_c, symObjAddr: 0x2FC, symBinAddr: 0x100004124, symSize: 0x21C }
  - { offsetInCU: 0x2EA52, offset: 0x2EA52, size: 0x8, addend: 0x0, symName: __ZN5Eigen8internal14aligned_mallocEm, symObjAddr: 0x200, symBinAddr: 0x100004028, symSize: 0xCC }
  - { offsetInCU: 0x2EA5A, offset: 0x2EA5A, size: 0x8, addend: 0x0, symName: __ZN5Eigen8internal12aligned_freeEPv, symObjAddr: 0x2CC, symBinAddr: 0x1000040F4, symSize: 0x30 }
  - { offsetInCU: 0x2EADE, offset: 0x2EADE, size: 0x8, addend: 0x0, symName: __ZN5Eigen8internal19throw_std_bad_allocEv, symObjAddr: 0x1C8, symBinAddr: 0x100003FF0, symSize: 0x38 }
  - { offsetInCU: 0x2EAE6, offset: 0x2EAE6, size: 0x8, addend: 0x0, symName: __ZN5Eigen8internal14aligned_mallocEm, symObjAddr: 0x200, symBinAddr: 0x100004028, symSize: 0xCC }
  - { offsetInCU: 0x2EB12, offset: 0x2EB12, size: 0x8, addend: 0x0, symName: __ZN5Eigen8internal28check_that_malloc_is_allowedEv, symObjAddr: 0x1C0, symBinAddr: 0x100003FE8, symSize: 0x8 }
  - { offsetInCU: 0x2EB1A, offset: 0x2EB1A, size: 0x8, addend: 0x0, symName: __ZN5Eigen8internal19throw_std_bad_allocEv, symObjAddr: 0x1C8, symBinAddr: 0x100003FF0, symSize: 0x38 }
  - { offsetInCU: 0x2EB22, offset: 0x2EB22, size: 0x8, addend: 0x0, symName: __ZN5Eigen8internal17check_implicationEbb, symObjAddr: 0x178, symBinAddr: 0x100003FA0, symSize: 0x48 }
  - { offsetInCU: 0x2EB2A, offset: 0x2EB2A, size: 0x8, addend: 0x0, symName: __ZN5Eigen8internal28check_that_malloc_is_allowedEv, symObjAddr: 0x1C0, symBinAddr: 0x100003FE8, symSize: 0x8 }
  - { offsetInCU: 0x2EB4A, offset: 0x2EB4A, size: 0x8, addend: 0x0, symName: __ZNSt8ios_base5widthEl, symObjAddr: 0x148, symBinAddr: 0x100003F70, symSize: 0x30 }
  - { offsetInCU: 0x2EB52, offset: 0x2EB52, size: 0x8, addend: 0x0, symName: __ZN5Eigen8internal17check_implicationEbb, symObjAddr: 0x178, symBinAddr: 0x100003FA0, symSize: 0x48 }
  - { offsetInCU: 0x2EBB5, offset: 0x2EBB5, size: 0x8, addend: 0x0, symName: __ZNKSt8ios_base5widthEv, symObjAddr: 0x130, symBinAddr: 0x100003F58, symSize: 0x18 }
  - { offsetInCU: 0x2EBBD, offset: 0x2EBBD, size: 0x8, addend: 0x0, symName: __ZNSt8ios_base5widthEl, symObjAddr: 0x148, symBinAddr: 0x100003F70, symSize: 0x30 }
  - { offsetInCU: 0x2EBE4, offset: 0x2EBE4, size: 0x8, addend: 0x0, symName: __ZNSt8ios_base9precisionEl, symObjAddr: 0x100, symBinAddr: 0x100003F28, symSize: 0x30 }
  - { offsetInCU: 0x2EBEC, offset: 0x2EBEC, size: 0x8, addend: 0x0, symName: __ZNKSt8ios_base5widthEv, symObjAddr: 0x130, symBinAddr: 0x100003F58, symSize: 0x18 }
  - { offsetInCU: 0x2EC8B, offset: 0x2EC8B, size: 0x8, addend: 0x0, symName: __ZNSt7__cxx114stoiERKNS_12basic_stringIcSt11char_traitsIcESaIcEEEPmi, symObjAddr: 0xBC, symBinAddr: 0x100003EE4, symSize: 0x44 }
  - { offsetInCU: 0x2EC93, offset: 0x2EC93, size: 0x8, addend: 0x0, symName: __ZNSt8ios_base9precisionEl, symObjAddr: 0x100, symBinAddr: 0x100003F28, symSize: 0x30 }
  - { offsetInCU: 0x2ECA6, offset: 0x2ECA6, size: 0x8, addend: 0x0, symName: __ZNSt11char_traitsIcE6lengthEPKc, symObjAddr: 0x7C, symBinAddr: 0x100003EA4, symSize: 0x40 }
  - { offsetInCU: 0x2ECAE, offset: 0x2ECAE, size: 0x8, addend: 0x0, symName: __ZNSt7__cxx114stoiERKNS_12basic_stringIcSt11char_traitsIcESaIcEEEPmi, symObjAddr: 0xBC, symBinAddr: 0x100003EE4, symSize: 0x44 }
  - { offsetInCU: 0x2ED06, offset: 0x2ED06, size: 0x8, addend: 0x0, symName: __ZNSt9bad_allocC1Ev, symObjAddr: 0x48, symBinAddr: 0x100003E70, symSize: 0x34 }
  - { offsetInCU: 0x2ED0E, offset: 0x2ED0E, size: 0x8, addend: 0x0, symName: __ZNSt11char_traitsIcE6lengthEPKc, symObjAddr: 0x7C, symBinAddr: 0x100003EA4, symSize: 0x40 }
  - { offsetInCU: 0x2ED4D, offset: 0x2ED4D, size: 0x8, addend: 0x0, symName: __ZNSt9exceptionC2Ev, symObjAddr: 0x20, symBinAddr: 0x100003E48, symSize: 0x28 }
  - { offsetInCU: 0x2ED55, offset: 0x2ED55, size: 0x8, addend: 0x0, symName: __ZNSt9bad_allocC1Ev, symObjAddr: 0x48, symBinAddr: 0x100003E70, symSize: 0x34 }
  - { offsetInCU: 0x2EDDA, offset: 0x2EDDA, size: 0x8, addend: 0x0, symName: __ZSt23__is_constant_evaluatedv, symObjAddr: 0x0, symBinAddr: 0x100003E28, symSize: 0x8 }
  - { offsetInCU: 0x2EDE2, offset: 0x2EDE2, size: 0x8, addend: 0x0, symName: __ZSt3absd, symObjAddr: 0x8, symBinAddr: 0x100003E30, symSize: 0x18 }
...
