---
triple:          'arm64-apple-darwin'
binary-path:     MCludcmp
relocations:
  - { offsetInCU: 0xCF, offset: 0xCF, size: 0x8, addend: 0x0, symName: __ZSt23__is_constant_evaluatedv, symObjAddr: 0x0, symBinAddr: 0x100003EDC, symSize: 0x8 }
  - { offsetInCU: 0x11014, offset: 0x11014, size: 0x8, addend: 0x0, symName: __ZN5EigenL7DynamicE, symObjAddr: 0x71A0, symBinAddr: 0x10000C078, symSize: 0x0 }
  - { offsetInCU: 0x11033, offset: 0x11033, size: 0x8, addend: 0x0, symName: __ZN5EigenL12DynamicIndexE, symObjAddr: 0x71A4, symBinAddr: 0x10000C07C, symSize: 0x0 }
  - { offsetInCU: 0x1104A, offset: 0x1104A, size: 0x8, addend: 0x0, symName: __ZN5EigenL9UndefinedE, symObjAddr: 0x71A8, symBinAddr: 0x10000C080, symSize: 0x0 }
  - { offsetInCU: 0x11063, offset: 0x11063, size: 0x8, addend: 0x0, symName: __ZN5EigenL8InfinityE, symObjAddr: 0x71AC, symBinAddr: 0x10000C084, symSize: 0x0 }
  - { offsetInCU: 0x1107D, offset: 0x1107D, size: 0x8, addend: 0x0, symName: __ZN5EigenL8HugeCostE, symObjAddr: 0x71B0, symBinAddr: 0x10000C088, symSize: 0x0 }
  - { offsetInCU: 0x1109A, offset: 0x1109A, size: 0x8, addend: 0x0, symName: __ZN5EigenL11RowMajorBitE, symObjAddr: 0x71B4, symBinAddr: 0x10000C08C, symSize: 0x0 }
  - { offsetInCU: 0x110BD, offset: 0x110BD, size: 0x8, addend: 0x0, symName: __ZN5EigenL20EvalBeforeNestingBitE, symObjAddr: 0x71B8, symBinAddr: 0x10000C090, symSize: 0x0 }
  - { offsetInCU: 0x110D9, offset: 0x110D9, size: 0x8, addend: 0x0, symName: __ZN5EigenL22EvalBeforeAssigningBitE, symObjAddr: 0x71BC, symBinAddr: 0x10000C094, symSize: 0x0 }
  - { offsetInCU: 0x110EC, offset: 0x110EC, size: 0x8, addend: 0x0, symName: __ZN5EigenL15PacketAccessBitE, symObjAddr: 0x71C0, symBinAddr: 0x10000C098, symSize: 0x0 }
  - { offsetInCU: 0x1110C, offset: 0x1110C, size: 0x8, addend: 0x0, symName: __ZN5EigenL21ActualPacketAccessBitE, symObjAddr: 0x71C4, symBinAddr: 0x10000C09C, symSize: 0x0 }
  - { offsetInCU: 0x11120, offset: 0x11120, size: 0x8, addend: 0x0, symName: __ZN5EigenL15LinearAccessBitE, symObjAddr: 0x71C8, symBinAddr: 0x10000C0A0, symSize: 0x0 }
  - { offsetInCU: 0x11134, offset: 0x11134, size: 0x8, addend: 0x0, symName: __ZN5EigenL9LvalueBitE, symObjAddr: 0x71CC, symBinAddr: 0x10000C0A4, symSize: 0x0 }
  - { offsetInCU: 0x11154, offset: 0x11154, size: 0x8, addend: 0x0, symName: __ZN5EigenL15DirectAccessBitE, symObjAddr: 0x71D0, symBinAddr: 0x10000C0A8, symSize: 0x0 }
  - { offsetInCU: 0x11169, offset: 0x11169, size: 0x8, addend: 0x0, symName: __ZN5EigenL10AlignedBitE, symObjAddr: 0x71D4, symBinAddr: 0x10000C0AC, symSize: 0x0 }
  - { offsetInCU: 0x11185, offset: 0x11185, size: 0x8, addend: 0x0, symName: __ZN5EigenL12NestByRefBitE, symObjAddr: 0x71D8, symBinAddr: 0x10000C0B0, symSize: 0x0 }
  - { offsetInCU: 0x111AD, offset: 0x111AD, size: 0x8, addend: 0x0, symName: __ZN5EigenL26NoPreferredStorageOrderBitE, symObjAddr: 0x71DC, symBinAddr: 0x10000C0B4, symSize: 0x0 }
  - { offsetInCU: 0x111C0, offset: 0x111C0, size: 0x8, addend: 0x0, symName: __ZN5EigenL19CompressedAccessBitE, symObjAddr: 0x71E0, symBinAddr: 0x10000C0B8, symSize: 0x0 }
  - { offsetInCU: 0x111D5, offset: 0x111D5, size: 0x8, addend: 0x0, symName: __ZN5EigenL14HereditaryBitsE, symObjAddr: 0x71E4, symBinAddr: 0x10000C0BC, symSize: 0x0 }
  - { offsetInCU: 0x11449, offset: 0x11449, size: 0x8, addend: 0x0, symName: __ZSt3absd, symObjAddr: 0x8, symBinAddr: 0x100003EE4, symSize: 0x18 }
  - { offsetInCU: 0x11451, offset: 0x11451, size: 0x8, addend: 0x0, symName: __ZNSt9exceptionC2Ev, symObjAddr: 0x20, symBinAddr: 0x100003EFC, symSize: 0x28 }
  - { offsetInCU: 0x122C9, offset: 0x122C9, size: 0x8, addend: 0x0, symName: __ZN5Eigen8internalL18p2ul_conj_XOR_DATAE, symObjAddr: 0x71E8, symBinAddr: 0x10000C0C0, symSize: 0x0 }
  - { offsetInCU: 0x122DF, offset: 0x122DF, size: 0x8, addend: 0x0, symName: __ZN5Eigen8internalL13p2ul_CONJ_XORE, symObjAddr: 0xE5540, symBinAddr: 0x1000141D0, symSize: 0x0 }
  - { offsetInCU: 0x1252D, offset: 0x1252D, size: 0x8, addend: 0x0, symName: __ZN5Eigen12placeholdersL4lastE, symObjAddr: 0x71F8, symBinAddr: 0x10000C0D0, symSize: 0x0 }
  - { offsetInCU: 0x12A93, offset: 0x12A93, size: 0x8, addend: 0x0, symName: __ZN5Eigen12placeholdersL6lastp1E, symObjAddr: 0x71F9, symBinAddr: 0x10000C0D1, symSize: 0x0 }
  - { offsetInCU: 0x12AAA, offset: 0x12AAA, size: 0x8, addend: 0x0, symName: __ZN5Eigen12placeholdersL3endE, symObjAddr: 0x71FB, symBinAddr: 0x10000C0D3, symSize: 0x0 }
  - { offsetInCU: 0x12AC4, offset: 0x12AC4, size: 0x8, addend: 0x0, symName: __ZN5Eigen12placeholdersL3allE, symObjAddr: 0x71FD, symBinAddr: 0x10000C0D5, symSize: 0x0 }
  - { offsetInCU: 0x12AE4, offset: 0x12AE4, size: 0x8, addend: 0x0, symName: __ZN5EigenL9AutoOrderE, symObjAddr: 0x7200, symBinAddr: 0x10000C0D8, symSize: 0x0 }
  - { offsetInCU: 0x12D1F, offset: 0x12D1F, size: 0x8, addend: 0x0, symName: __ZN5Eigen8internalL18defaultL1CacheSizeE, symObjAddr: 0x7208, symBinAddr: 0x10000C0E0, symSize: 0x0 }
  - { offsetInCU: 0x12D39, offset: 0x12D39, size: 0x8, addend: 0x0, symName: __ZN5Eigen8internalL18defaultL2CacheSizeE, symObjAddr: 0x7210, symBinAddr: 0x10000C0E8, symSize: 0x0 }
  - { offsetInCU: 0x12D53, offset: 0x12D53, size: 0x8, addend: 0x0, symName: __ZN5Eigen8internalL18defaultL3CacheSizeE, symObjAddr: 0x7218, symBinAddr: 0x10000C0F0, symSize: 0x0 }
  - { offsetInCU: 0x1BC77, offset: 0x1BC77, size: 0x8, addend: 0x0, symName: __ZStL8__ioinit, symObjAddr: 0xE5550, symBinAddr: 0x1000141E0, symSize: 0x0 }
  - { offsetInCU: 0x37866, offset: 0x37866, size: 0x8, addend: 0x0, symName: __ZN5Eigen3fixILi1EEE, symObjAddr: 0x7240, symBinAddr: 0x10000C118, symSize: 0x0 }
  - { offsetInCU: 0x37881, offset: 0x37881, size: 0x8, addend: 0x0, symName: __ZN5Eigen8internal16is_int_or_enum_vIiEE, symObjAddr: 0x7241, symBinAddr: 0x10000C119, symSize: 0x0 }
  - { offsetInCU: 0x3789C, offset: 0x3789C, size: 0x8, addend: 0x0, symName: __ZN5Eigen8internal16is_int_or_enum_vINS_9DenseBaseINS_6MatrixIfLi4ELi1ELi0ELi4ELi1EEEEUt_EEE, symObjAddr: 0x7242, symBinAddr: 0x10000C11A, symSize: 0x0 }
  - { offsetInCU: 0x378B7, offset: 0x378B7, size: 0x8, addend: 0x0, symName: __ZN5Eigen8internal16is_int_or_enum_vINS_9DenseBaseINS_6MatrixIdLi4ELi1ELi0ELi4ELi1EEEEUt_EEE, symObjAddr: 0x7243, symBinAddr: 0x10000C11B, symSize: 0x0 }
  - { offsetInCU: 0x378D2, offset: 0x378D2, size: 0x8, addend: 0x0, symName: __ZN5Eigen8internal16is_int_or_enum_vINS_9DenseBaseINS_6MatrixIdLin1ELin1ELi0ELin1ELin1EEEEUt_EEE, symObjAddr: 0x7244, symBinAddr: 0x10000C11C, symSize: 0x0 }
  - { offsetInCU: 0x378ED, offset: 0x378ED, size: 0x8, addend: 0x0, symName: __ZN5Eigen8internal16is_int_or_enum_vINS_9DenseBaseINS_6MatrixIdLi4ELi4ELi0ELi4ELi4EEEEUt_EEE, symObjAddr: 0x7245, symBinAddr: 0x10000C11D, symSize: 0x0 }
  - { offsetInCU: 0x37908, offset: 0x37908, size: 0x8, addend: 0x0, symName: __ZN5Eigen8internal16is_int_or_enum_vINS_9DenseBaseINS_3MapINS_6MatrixIdLi4ELi4ELi0ELi4ELi4EEELi0ENS_6StrideILi0ELi0EEEEEEUt_EEE, symObjAddr: 0x7246, symBinAddr: 0x10000C11E, symSize: 0x0 }
  - { offsetInCU: 0x37922, offset: 0x37922, size: 0x8, addend: 0x0, symName: __ZNSt8__detail30__integer_to_chars_is_unsignedIjEE, symObjAddr: 0x7247, symBinAddr: 0x10000C11F, symSize: 0x0 }
  - { offsetInCU: 0x3793C, offset: 0x3793C, size: 0x8, addend: 0x0, symName: __ZNSt8__detail30__integer_to_chars_is_unsignedImEE, symObjAddr: 0x7248, symBinAddr: 0x10000C120, symSize: 0x0 }
  - { offsetInCU: 0x37956, offset: 0x37956, size: 0x8, addend: 0x0, symName: __ZNSt8__detail30__integer_to_chars_is_unsignedIyEE, symObjAddr: 0x7249, symBinAddr: 0x10000C121, symSize: 0x0 }
  - { offsetInCU: 0x37971, offset: 0x37971, size: 0x8, addend: 0x0, symName: __ZN5Eigen8internal16is_int_or_enum_vINS_9DenseBaseINS_5BlockINS_6MatrixIdLin1ELin1ELi0ELin1ELin1EEELi1ELin1ELb0EEEEUt_EEE, symObjAddr: 0x724A, symBinAddr: 0x10000C122, symSize: 0x0 }
  - { offsetInCU: 0x3798C, offset: 0x3798C, size: 0x8, addend: 0x0, symName: __ZN5Eigen8internal16is_int_or_enum_vINS_9DenseBaseINS_12CwiseUnaryOpINS0_13scalar_abs_opIdEEKNS_5BlockINS_6MatrixIdLin1ELin1ELi0ELin1ELin1EEELi1ELin1ELb0EEEEEEUt_EEE, symObjAddr: 0x724B, symBinAddr: 0x10000C123, symSize: 0x0 }
  - { offsetInCU: 0x379A7, offset: 0x379A7, size: 0x8, addend: 0x0, symName: __ZN5Eigen8internal16is_int_or_enum_vINS_9DenseBaseINS_5BlockINS_6MatrixIdLin1ELin1ELi0ELin1ELin1EEELin1ELi1ELb1EEEEUt_EEE, symObjAddr: 0x724C, symBinAddr: 0x10000C124, symSize: 0x0 }
  - { offsetInCU: 0x379C2, offset: 0x379C2, size: 0x8, addend: 0x0, symName: __ZN5Eigen8internal16is_int_or_enum_vINS0_9evaluatorINS_15PlainObjectBaseINS_6MatrixIdLin1ELin1ELi0ELin1ELin1EEEEEEUt_EEE, symObjAddr: 0x724D, symBinAddr: 0x10000C125, symSize: 0x0 }
  - { offsetInCU: 0x379DD, offset: 0x379DD, size: 0x8, addend: 0x0, symName: __ZN5Eigen8internal16is_int_or_enum_vINS0_9evaluatorINS_5BlockINS_6MatrixIdLin1ELin1ELi0ELin1ELin1EEELi1ELin1ELb0EEEEUt_EEE, symObjAddr: 0x724E, symBinAddr: 0x10000C126, symSize: 0x0 }
  - { offsetInCU: 0x379F8, offset: 0x379F8, size: 0x8, addend: 0x0, symName: __ZN5Eigen8internal16is_int_or_enum_vINS_5BlockINS_6MatrixIdLin1ELin1ELi0ELin1ELin1EEELi1ELin1ELb0EE17CompileTimeTraitsEEE, symObjAddr: 0x724F, symBinAddr: 0x10000C127, symSize: 0x0 }
  - { offsetInCU: 0x37A13, offset: 0x37A13, size: 0x8, addend: 0x0, symName: __ZN5Eigen8internal16is_int_or_enum_vINS0_9evaluatorINS_15PlainObjectBaseINS_6MatrixIdLi4ELi4ELi0ELi4ELi4EEEEEEUt_EEE, symObjAddr: 0x7250, symBinAddr: 0x10000C128, symSize: 0x0 }
  - { offsetInCU: 0x37A2E, offset: 0x37A2E, size: 0x8, addend: 0x0, symName: __ZN5Eigen8internal16is_int_or_enum_vINS0_9evaluatorINS_3MapINS_6MatrixIdLi4ELi4ELi0ELi4ELi4EEELi0ENS_6StrideILi0ELi0EEEEEEUt_EEE, symObjAddr: 0x7251, symBinAddr: 0x10000C129, symSize: 0x0 }
  - { offsetInCU: 0x37A49, offset: 0x37A49, size: 0x8, addend: 0x0, symName: __ZN5Eigen8internal16is_int_or_enum_vINS_6MatrixIdLi4ELi4ELi0ELi4ELi4EE17CompileTimeTraitsEEE, symObjAddr: 0x7252, symBinAddr: 0x10000C12A, symSize: 0x0 }
  - { offsetInCU: 0x37C16, offset: 0x37C16, size: 0x8, addend: 0x0, symName: __Z8MCludcmpIN5Eigen6MatrixIdLin1ELin1ELi0ELin1ELin1EEEEvRNS0_10MatrixBaseIT_EElPi, symObjAddr: 0xF14, symBinAddr: 0x100004DF0, symSize: 0x4EC }
  - { offsetInCU: 0x37C1E, offset: 0x37C1E, size: 0x8, addend: 0x0, symName: __ZN5Eigen8IOFormatD1Ev, symObjAddr: 0x1400, symBinAddr: 0x1000052DC, symSize: 0x68 }
  - { offsetInCU: 0x37E78, offset: 0x37E78, size: 0x8, addend: 0x0, symName: __Z8MCludcmpIN5Eigen6MatrixIdLin1ELin1ELi0ELin1ELin1EEEEvRNS0_10MatrixBaseIT_EElPi._omp_fn.0, symObjAddr: 0x6198, symBinAddr: 0x10000A074, symSize: 0x11C }
  - { offsetInCU: 0x37E80, offset: 0x37E80, size: 0x8, addend: 0x0, symName: __Z8MCludcmpIN5Eigen6MatrixIdLin1ELin1ELi0ELin1ELin1EEEEvRNS0_10MatrixBaseIT_EElPi._omp_fn.1, symObjAddr: 0x62B4, symBinAddr: 0x10000A190, symSize: 0x158 }
  - { offsetInCU: 0x37F16, offset: 0x37F16, size: 0x8, addend: 0x0, symName: __Z8MCludcmpIN5Eigen6MatrixIdLin1ELin1ELi0ELin1ELin1EEEEvRNS0_10MatrixBaseIT_EElPi._omp_fn.1, symObjAddr: 0x62B4, symBinAddr: 0x10000A190, symSize: 0x158 }
  - { offsetInCU: 0x37F1E, offset: 0x37F1E, size: 0x8, addend: 0x0, symName: __Z8MCludcmpIN5Eigen6MatrixIdLin1ELin1ELi0ELin1ELin1EEEEvRNS0_10MatrixBaseIT_EElPi._omp_fn.2, symObjAddr: 0x640C, symBinAddr: 0x10000A2E8, symSize: 0x1E0 }
  - { offsetInCU: 0x37F9E, offset: 0x37F9E, size: 0x8, addend: 0x0, symName: __Z8MCludcmpIN5Eigen6MatrixIdLin1ELin1ELi0ELin1ELin1EEEEvRNS0_10MatrixBaseIT_EElPi._omp_fn.2, symObjAddr: 0x640C, symBinAddr: 0x10000A2E8, symSize: 0x1E0 }
  - { offsetInCU: 0x37FA6, offset: 0x37FA6, size: 0x8, addend: 0x0, symName: __Z8MCludcmpIN5Eigen6MatrixIdLin1ELin1ELi0ELin1ELin1EEEEvRNS0_10MatrixBaseIT_EElPi._omp_fn.3, symObjAddr: 0x65EC, symBinAddr: 0x10000A4C8, symSize: 0xF0 }
  - { offsetInCU: 0x3804A, offset: 0x3804A, size: 0x8, addend: 0x0, symName: __Z8MCludcmpIN5Eigen6MatrixIdLin1ELin1ELi0ELin1ELin1EEEEvRNS0_10MatrixBaseIT_EElPi._omp_fn.3, symObjAddr: 0x65EC, symBinAddr: 0x10000A4C8, symSize: 0xF0 }
  - { offsetInCU: 0x381B3, offset: 0x381B3, size: 0x8, addend: 0x0, symName: __GLOBAL__sub_I_MCludcmp.cpp, symObjAddr: 0x6184, symBinAddr: 0x10000A060, symSize: 0x14 }
  - { offsetInCU: 0x381BB, offset: 0x381BB, size: 0x8, addend: 0x0, symName: __Z8MCludcmpIN5Eigen6MatrixIdLin1ELin1ELi0ELin1ELin1EEEEvRNS0_10MatrixBaseIT_EElPi._omp_fn.0, symObjAddr: 0x6198, symBinAddr: 0x10000A074, symSize: 0x11C }
  - { offsetInCU: 0x381DB, offset: 0x381DB, size: 0x8, addend: 0x0, symName: __Z41__static_initialization_and_destruction_0v, symObjAddr: 0x6124, symBinAddr: 0x10000A000, symSize: 0x60 }
  - { offsetInCU: 0x381E3, offset: 0x381E3, size: 0x8, addend: 0x0, symName: __GLOBAL__sub_I_MCludcmp.cpp, symObjAddr: 0x6184, symBinAddr: 0x10000A060, symSize: 0x14 }
  - { offsetInCU: 0x381F4, offset: 0x381F4, size: 0x8, addend: 0x0, symName: __ZN5Eigen8internal47copy_using_evaluator_innervec_CompleteUnrollingINS0_31generic_dense_assignment_kernelINS0_9evaluatorINS_6MatrixIdLi4ELi4ELi0ELi4ELi4EEEEENS3_INS_3MapIS5_Li0ENS_6StrideILi0ELi0EEEEEEENS0_9assign_opIddEELi0EEELi16ELi16EE3runERSE_, symObjAddr: 0x6110, symBinAddr: 0x100009FEC, symSize: 0x14 }
  - { offsetInCU: 0x381FC, offset: 0x381FC, size: 0x8, addend: 0x0, symName: __Z41__static_initialization_and_destruction_0v, symObjAddr: 0x6124, symBinAddr: 0x10000A000, symSize: 0x60 }
  - { offsetInCU: 0x3821E, offset: 0x3821E, size: 0x8, addend: 0x0, symName: __ZN5Eigen8internal47copy_using_evaluator_innervec_CompleteUnrollingINS0_31generic_dense_assignment_kernelINS0_9evaluatorINS_6MatrixIdLi4ELi4ELi0ELi4ELi4EEEEENS3_INS_3MapIS5_Li0ENS_6StrideILi0ELi0EEEEEEENS0_9assign_opIddEELi0EEELi14ELi16EE3runERSE_, symObjAddr: 0x60E0, symBinAddr: 0x100009FBC, symSize: 0x30 }
  - { offsetInCU: 0x38226, offset: 0x38226, size: 0x8, addend: 0x0, symName: __ZN5Eigen8internal47copy_using_evaluator_innervec_CompleteUnrollingINS0_31generic_dense_assignment_kernelINS0_9evaluatorINS_6MatrixIdLi4ELi4ELi0ELi4ELi4EEEEENS3_INS_3MapIS5_Li0ENS_6StrideILi0ELi0EEEEEEENS0_9assign_opIddEELi0EEELi16ELi16EE3runERSE_, symObjAddr: 0x6110, symBinAddr: 0x100009FEC, symSize: 0x14 }
  - { offsetInCU: 0x3825D, offset: 0x3825D, size: 0x8, addend: 0x0, symName: __ZN5Eigen8internal47copy_using_evaluator_innervec_CompleteUnrollingINS0_31generic_dense_assignment_kernelINS0_9evaluatorINS_6MatrixIdLi4ELi4ELi0ELi4ELi4EEEEENS3_INS_3MapIS5_Li0ENS_6StrideILi0ELi0EEEEEEENS0_9assign_opIddEELi0EEELi12ELi16EE3runERSE_, symObjAddr: 0x60B0, symBinAddr: 0x100009F8C, symSize: 0x30 }
  - { offsetInCU: 0x38265, offset: 0x38265, size: 0x8, addend: 0x0, symName: __ZN5Eigen8internal47copy_using_evaluator_innervec_CompleteUnrollingINS0_31generic_dense_assignment_kernelINS0_9evaluatorINS_6MatrixIdLi4ELi4ELi0ELi4ELi4EEEEENS3_INS_3MapIS5_Li0ENS_6StrideILi0ELi0EEEEEEENS0_9assign_opIddEELi0EEELi14ELi16EE3runERSE_, symObjAddr: 0x60E0, symBinAddr: 0x100009FBC, symSize: 0x30 }
  - { offsetInCU: 0x3829C, offset: 0x3829C, size: 0x8, addend: 0x0, symName: __ZN5Eigen8internal47copy_using_evaluator_innervec_CompleteUnrollingINS0_31generic_dense_assignment_kernelINS0_9evaluatorINS_6MatrixIdLi4ELi4ELi0ELi4ELi4EEEEENS3_INS_3MapIS5_Li0ENS_6StrideILi0ELi0EEEEEEENS0_9assign_opIddEELi0EEELi10ELi16EE3runERSE_, symObjAddr: 0x6080, symBinAddr: 0x100009F5C, symSize: 0x30 }
  - { offsetInCU: 0x382A4, offset: 0x382A4, size: 0x8, addend: 0x0, symName: __ZN5Eigen8internal47copy_using_evaluator_innervec_CompleteUnrollingINS0_31generic_dense_assignment_kernelINS0_9evaluatorINS_6MatrixIdLi4ELi4ELi0ELi4ELi4EEEEENS3_INS_3MapIS5_Li0ENS_6StrideILi0ELi0EEEEEEENS0_9assign_opIddEELi0EEELi12ELi16EE3runERSE_, symObjAddr: 0x60B0, symBinAddr: 0x100009F8C, symSize: 0x30 }
  - { offsetInCU: 0x382DB, offset: 0x382DB, size: 0x8, addend: 0x0, symName: __ZN5Eigen8internal47copy_using_evaluator_innervec_CompleteUnrollingINS0_31generic_dense_assignment_kernelINS0_9evaluatorINS_6MatrixIdLi4ELi4ELi0ELi4ELi4EEEEENS3_INS_3MapIS5_Li0ENS_6StrideILi0ELi0EEEEEEENS0_9assign_opIddEELi0EEELi8ELi16EE3runERSE_, symObjAddr: 0x6050, symBinAddr: 0x100009F2C, symSize: 0x30 }
  - { offsetInCU: 0x382E3, offset: 0x382E3, size: 0x8, addend: 0x0, symName: __ZN5Eigen8internal47copy_using_evaluator_innervec_CompleteUnrollingINS0_31generic_dense_assignment_kernelINS0_9evaluatorINS_6MatrixIdLi4ELi4ELi0ELi4ELi4EEEEENS3_INS_3MapIS5_Li0ENS_6StrideILi0ELi0EEEEEEENS0_9assign_opIddEELi0EEELi10ELi16EE3runERSE_, symObjAddr: 0x6080, symBinAddr: 0x100009F5C, symSize: 0x30 }
  - { offsetInCU: 0x383C3, offset: 0x383C3, size: 0x8, addend: 0x0, symName: __ZNK5Eigen8internal17mapbase_evaluatorINS_3MapINS_6MatrixIdLi4ELi4ELi0ELi4ELi4EEELi0ENS_6StrideILi0ELi0EEEEES4_E9colStrideEv, symObjAddr: 0x6038, symBinAddr: 0x100009F14, symSize: 0x18 }
  - { offsetInCU: 0x383CB, offset: 0x383CB, size: 0x8, addend: 0x0, symName: __ZN5Eigen8internal47copy_using_evaluator_innervec_CompleteUnrollingINS0_31generic_dense_assignment_kernelINS0_9evaluatorINS_6MatrixIdLi4ELi4ELi0ELi4ELi4EEEEENS3_INS_3MapIS5_Li0ENS_6StrideILi0ELi0EEEEEEENS0_9assign_opIddEELi0EEELi8ELi16EE3runERSE_, symObjAddr: 0x6050, symBinAddr: 0x100009F2C, symSize: 0x30 }
  - { offsetInCU: 0x383F3, offset: 0x383F3, size: 0x8, addend: 0x0, symName: __ZNK5Eigen8internal17mapbase_evaluatorINS_3MapINS_6MatrixIdLi4ELi4ELi0ELi4ELi4EEELi0ENS_6StrideILi0ELi0EEEEES4_E9rowStrideEv, symObjAddr: 0x6020, symBinAddr: 0x100009EFC, symSize: 0x18 }
  - { offsetInCU: 0x383FB, offset: 0x383FB, size: 0x8, addend: 0x0, symName: __ZNK5Eigen8internal17mapbase_evaluatorINS_3MapINS_6MatrixIdLi4ELi4ELi0ELi4ELi4EEELi0ENS_6StrideILi0ELi0EEEEES4_E9colStrideEv, symObjAddr: 0x6038, symBinAddr: 0x100009F14, symSize: 0x18 }
  - { offsetInCU: 0x38423, offset: 0x38423, size: 0x8, addend: 0x0, symName: __ZNK5Eigen8internal30plainobjectbase_evaluator_dataIdLi4EE11outerStrideEv, symObjAddr: 0x600C, symBinAddr: 0x100009EE8, symSize: 0x14 }
  - { offsetInCU: 0x3842B, offset: 0x3842B, size: 0x8, addend: 0x0, symName: __ZNK5Eigen8internal17mapbase_evaluatorINS_3MapINS_6MatrixIdLi4ELi4ELi0ELi4ELi4EEELi0ENS_6StrideILi0ELi0EEEEES4_E9rowStrideEv, symObjAddr: 0x6020, symBinAddr: 0x100009EFC, symSize: 0x18 }
  - { offsetInCU: 0x38453, offset: 0x38453, size: 0x8, addend: 0x0, symName: __ZN5Eigen8internal47copy_using_evaluator_innervec_CompleteUnrollingINS0_31generic_dense_assignment_kernelINS0_9evaluatorINS_6MatrixIdLi4ELi4ELi0ELi4ELi4EEEEENS3_INS_3MapIS5_Li0ENS_6StrideILi0ELi0EEEEEEENS0_9assign_opIddEELi0EEELi6ELi16EE3runERSE_, symObjAddr: 0x5FDC, symBinAddr: 0x100009EB8, symSize: 0x30 }
  - { offsetInCU: 0x3845B, offset: 0x3845B, size: 0x8, addend: 0x0, symName: __ZNK5Eigen8internal30plainobjectbase_evaluator_dataIdLi4EE11outerStrideEv, symObjAddr: 0x600C, symBinAddr: 0x100009EE8, symSize: 0x14 }
  - { offsetInCU: 0x38492, offset: 0x38492, size: 0x8, addend: 0x0, symName: __ZNK5Eigen8internal9assign_opIddE12assignPacketILi16E13__Float64x2_tEEvPdRKT0_, symObjAddr: 0x5F9C, symBinAddr: 0x100009E78, symSize: 0x40 }
  - { offsetInCU: 0x3849A, offset: 0x3849A, size: 0x8, addend: 0x0, symName: __ZN5Eigen8internal47copy_using_evaluator_innervec_CompleteUnrollingINS0_31generic_dense_assignment_kernelINS0_9evaluatorINS_6MatrixIdLi4ELi4ELi0ELi4ELi4EEEEENS3_INS_3MapIS5_Li0ENS_6StrideILi0ELi0EEEEEEENS0_9assign_opIddEELi0EEELi6ELi16EE3runERSE_, symObjAddr: 0x5FDC, symBinAddr: 0x100009EB8, symSize: 0x30 }
  - { offsetInCU: 0x38535, offset: 0x38535, size: 0x8, addend: 0x0, symName: __ZNK5Eigen8internal17mapbase_evaluatorINS_3MapINS_6MatrixIdLi4ELi4ELi0ELi4ELi4EEELi0ENS_6StrideILi0ELi0EEEEES4_E6packetILi0E13__Float64x2_tEET0_ll, symObjAddr: 0x5F20, symBinAddr: 0x100009DFC, symSize: 0x7C }
  - { offsetInCU: 0x3853D, offset: 0x3853D, size: 0x8, addend: 0x0, symName: __ZNK5Eigen8internal9assign_opIddE12assignPacketILi16E13__Float64x2_tEEvPdRKT0_, symObjAddr: 0x5F9C, symBinAddr: 0x100009E78, symSize: 0x40 }
  - { offsetInCU: 0x385E2, offset: 0x385E2, size: 0x8, addend: 0x0, symName: __ZN5Eigen8internal9evaluatorINS_15PlainObjectBaseINS_6MatrixIdLi4ELi4ELi0ELi4ELi4EEEEEE8coeffRefEll, symObjAddr: 0x5ED0, symBinAddr: 0x100009DAC, symSize: 0x50 }
  - { offsetInCU: 0x385EA, offset: 0x385EA, size: 0x8, addend: 0x0, symName: __ZNK5Eigen8internal17mapbase_evaluatorINS_3MapINS_6MatrixIdLi4ELi4ELi0ELi4ELi4EEELi0ENS_6StrideILi0ELi0EEEEES4_E6packetILi0E13__Float64x2_tEET0_ll, symObjAddr: 0x5F20, symBinAddr: 0x100009DFC, symSize: 0x7C }
  - { offsetInCU: 0x38638, offset: 0x38638, size: 0x8, addend: 0x0, symName: __ZNK5Eigen9DenseBaseINS_6MatrixIdLi4ELi4ELi0ELi4ELi4EEEE9innerSizeEv, symObjAddr: 0x5EB4, symBinAddr: 0x100009D90, symSize: 0x1C }
  - { offsetInCU: 0x38640, offset: 0x38640, size: 0x8, addend: 0x0, symName: __ZN5Eigen8internal9evaluatorINS_15PlainObjectBaseINS_6MatrixIdLi4ELi4ELi0ELi4ELi4EEEEEE8coeffRefEll, symObjAddr: 0x5ED0, symBinAddr: 0x100009DAC, symSize: 0x50 }
  - { offsetInCU: 0x38668, offset: 0x38668, size: 0x8, addend: 0x0, symName: __ZN5Eigen8internal47copy_using_evaluator_innervec_CompleteUnrollingINS0_31generic_dense_assignment_kernelINS0_9evaluatorINS_6MatrixIdLi4ELi4ELi0ELi4ELi4EEEEENS3_INS_3MapIS5_Li0ENS_6StrideILi0ELi0EEEEEEENS0_9assign_opIddEELi0EEELi4ELi16EE3runERSE_, symObjAddr: 0x5E84, symBinAddr: 0x100009D60, symSize: 0x30 }
  - { offsetInCU: 0x38670, offset: 0x38670, size: 0x8, addend: 0x0, symName: __ZNK5Eigen9DenseBaseINS_6MatrixIdLi4ELi4ELi0ELi4ELi4EEEE9innerSizeEv, symObjAddr: 0x5EB4, symBinAddr: 0x100009D90, symSize: 0x1C }
  - { offsetInCU: 0x386A7, offset: 0x386A7, size: 0x8, addend: 0x0, symName: __ZN5Eigen8internal31generic_dense_assignment_kernelINS0_9evaluatorINS_6MatrixIdLi4ELi4ELi0ELi4ELi4EEEEENS2_INS_3MapIS4_Li0ENS_6StrideILi0ELi0EEEEEEENS0_9assign_opIddEELi0EE12assignPacketILi16ELi0E13__Float64x2_tEEvll, symObjAddr: 0x5E10, symBinAddr: 0x100009CEC, symSize: 0x74 }
  - { offsetInCU: 0x386AF, offset: 0x386AF, size: 0x8, addend: 0x0, symName: __ZN5Eigen8internal47copy_using_evaluator_innervec_CompleteUnrollingINS0_31generic_dense_assignment_kernelINS0_9evaluatorINS_6MatrixIdLi4ELi4ELi0ELi4ELi4EEEEENS3_INS_3MapIS5_Li0ENS_6StrideILi0ELi0EEEEEEENS0_9assign_opIddEELi0EEELi4ELi16EE3runERSE_, symObjAddr: 0x5E84, symBinAddr: 0x100009D60, symSize: 0x30 }
  - { offsetInCU: 0x38728, offset: 0x38728, size: 0x8, addend: 0x0, symName: __ZN5Eigen8internal31generic_dense_assignment_kernelINS0_9evaluatorINS_6MatrixIdLi4ELi4ELi0ELi4ELi4EEEEENS2_INS_3MapIS4_Li0ENS_6StrideILi0ELi0EEEEEEENS0_9assign_opIddEELi0EE20colIndexByOuterInnerEll, symObjAddr: 0x5DF8, symBinAddr: 0x100009CD4, symSize: 0x18 }
  - { offsetInCU: 0x38730, offset: 0x38730, size: 0x8, addend: 0x0, symName: __ZN5Eigen8internal31generic_dense_assignment_kernelINS0_9evaluatorINS_6MatrixIdLi4ELi4ELi0ELi4ELi4EEEEENS2_INS_3MapIS4_Li0ENS_6StrideILi0ELi0EEEEEEENS0_9assign_opIddEELi0EE12assignPacketILi16ELi0E13__Float64x2_tEEvll, symObjAddr: 0x5E10, symBinAddr: 0x100009CEC, symSize: 0x74 }
  - { offsetInCU: 0x3876E, offset: 0x3876E, size: 0x8, addend: 0x0, symName: __ZN5Eigen8internal31generic_dense_assignment_kernelINS0_9evaluatorINS_6MatrixIdLi4ELi4ELi0ELi4ELi4EEEEENS2_INS_3MapIS4_Li0ENS_6StrideILi0ELi0EEEEEEENS0_9assign_opIddEELi0EE20rowIndexByOuterInnerEll, symObjAddr: 0x5DE0, symBinAddr: 0x100009CBC, symSize: 0x18 }
  - { offsetInCU: 0x38776, offset: 0x38776, size: 0x8, addend: 0x0, symName: __ZN5Eigen8internal31generic_dense_assignment_kernelINS0_9evaluatorINS_6MatrixIdLi4ELi4ELi0ELi4ELi4EEEEENS2_INS_3MapIS4_Li0ENS_6StrideILi0ELi0EEEEEEENS0_9assign_opIddEELi0EE20colIndexByOuterInnerEll, symObjAddr: 0x5DF8, symBinAddr: 0x100009CD4, symSize: 0x18 }
  - { offsetInCU: 0x3880A, offset: 0x3880A, size: 0x8, addend: 0x0, symName: __ZN5Eigen8internal22ignore_unused_variableIlEEvRKT_, symObjAddr: 0x5DCC, symBinAddr: 0x100009CA8, symSize: 0x14 }
  - { offsetInCU: 0x38812, offset: 0x38812, size: 0x8, addend: 0x0, symName: __ZN5Eigen8internal31generic_dense_assignment_kernelINS0_9evaluatorINS_6MatrixIdLi4ELi4ELi0ELi4ELi4EEEEENS2_INS_3MapIS4_Li0ENS_6StrideILi0ELi0EEEEEEENS0_9assign_opIddEELi0EE20rowIndexByOuterInnerEll, symObjAddr: 0x5DE0, symBinAddr: 0x100009CBC, symSize: 0x18 }
  - { offsetInCU: 0x387F1, offset: 0x387F1, size: 0x8, addend: 0x0, symName: __ZNK5Eigen6MatrixIdLi4ELi4ELi0ELi4ELi4EE11outerStrideEv, symObjAddr: 0x5DB0, symBinAddr: 0x100009C8C, symSize: 0x1C }
  - { offsetInCU: 0x387F9, offset: 0x387F9, size: 0x8, addend: 0x0, symName: __ZN5Eigen8internal22ignore_unused_variableIlEEvRKT_, symObjAddr: 0x5DCC, symBinAddr: 0x100009CA8, symSize: 0x14 }
  - { offsetInCU: 0x38821, offset: 0x38821, size: 0x8, addend: 0x0, symName: __ZN5Eigen8internal47copy_using_evaluator_innervec_CompleteUnrollingINS0_31generic_dense_assignment_kernelINS0_9evaluatorINS_6MatrixIdLi4ELi4ELi0ELi4ELi4EEEEENS3_INS_3MapIS5_Li0ENS_6StrideILi0ELi0EEEEEEENS0_9assign_opIddEELi0EEELi2ELi16EE3runERSE_, symObjAddr: 0x5D80, symBinAddr: 0x100009C5C, symSize: 0x30 }
  - { offsetInCU: 0x38829, offset: 0x38829, size: 0x8, addend: 0x0, symName: __ZNK5Eigen6MatrixIdLi4ELi4ELi0ELi4ELi4EE11outerStrideEv, symObjAddr: 0x5DB0, symBinAddr: 0x100009C8C, symSize: 0x1C }
  - { offsetInCU: 0x38860, offset: 0x38860, size: 0x8, addend: 0x0, symName: __ZN5Eigen8internal31generic_dense_assignment_kernelINS0_9evaluatorINS_6MatrixIdLi4ELi4ELi0ELi4ELi4EEEEENS2_INS_3MapIS4_Li0ENS_6StrideILi0ELi0EEEEEEENS0_9assign_opIddEELi0EE24assignPacketByOuterInnerILi16ELi0E13__Float64x2_tEEvll, symObjAddr: 0x5D30, symBinAddr: 0x100009C0C, symSize: 0x50 }
  - { offsetInCU: 0x38868, offset: 0x38868, size: 0x8, addend: 0x0, symName: __ZN5Eigen8internal47copy_using_evaluator_innervec_CompleteUnrollingINS0_31generic_dense_assignment_kernelINS0_9evaluatorINS_6MatrixIdLi4ELi4ELi0ELi4ELi4EEEEENS3_INS_3MapIS5_Li0ENS_6StrideILi0ELi0EEEEEEENS0_9assign_opIddEELi0EEELi2ELi16EE3runERSE_, symObjAddr: 0x5D80, symBinAddr: 0x100009C5C, symSize: 0x30 }
  - { offsetInCU: 0x38987, offset: 0x38987, size: 0x8, addend: 0x0, symName: __ZN5Eigen8internal30plainobjectbase_evaluator_dataIdLi4EEC1EPKdl, symObjAddr: 0x5CFC, symBinAddr: 0x100009BD8, symSize: 0x34 }
  - { offsetInCU: 0x3898F, offset: 0x3898F, size: 0x8, addend: 0x0, symName: __ZN5Eigen8internal31generic_dense_assignment_kernelINS0_9evaluatorINS_6MatrixIdLi4ELi4ELi0ELi4ELi4EEEEENS2_INS_3MapIS4_Li0ENS_6StrideILi0ELi0EEEEEEENS0_9assign_opIddEELi0EE24assignPacketByOuterInnerILi16ELi0E13__Float64x2_tEEvll, symObjAddr: 0x5D30, symBinAddr: 0x100009C0C, symSize: 0x50 }
  - { offsetInCU: 0x389F3, offset: 0x389F3, size: 0x8, addend: 0x0, symName: __ZN5Eigen8internal14evaluator_baseINS_6MatrixIdLi4ELi4ELi0ELi4ELi4EEEEC2Ev, symObjAddr: 0x5CE8, symBinAddr: 0x100009BC4, symSize: 0x14 }
  - { offsetInCU: 0x389FB, offset: 0x389FB, size: 0x8, addend: 0x0, symName: __ZN5Eigen8internal30plainobjectbase_evaluator_dataIdLi4EEC1EPKdl, symObjAddr: 0x5CFC, symBinAddr: 0x100009BD8, symSize: 0x34 }
  - { offsetInCU: 0x389D7, offset: 0x389D7, size: 0x8, addend: 0x0, symName: __ZNK5Eigen15DenseCoeffsBaseINS_6MatrixIdLi4ELi4ELi0ELi4ELi4EEELi3EE11outerStrideEv, symObjAddr: 0x5CC8, symBinAddr: 0x100009BA4, symSize: 0x20 }
  - { offsetInCU: 0x389DF, offset: 0x389DF, size: 0x8, addend: 0x0, symName: __ZN5Eigen8internal14evaluator_baseINS_6MatrixIdLi4ELi4ELi0ELi4ELi4EEEEC2Ev, symObjAddr: 0x5CE8, symBinAddr: 0x100009BC4, symSize: 0x14 }
  - { offsetInCU: 0x38A07, offset: 0x38A07, size: 0x8, addend: 0x0, symName: __ZNK5Eigen15PlainObjectBaseINS_6MatrixIdLi4ELi4ELi0ELi4ELi4EEEE4dataEv, symObjAddr: 0x5CAC, symBinAddr: 0x100009B88, symSize: 0x1C }
  - { offsetInCU: 0x38A0F, offset: 0x38A0F, size: 0x8, addend: 0x0, symName: __ZNK5Eigen15DenseCoeffsBaseINS_6MatrixIdLi4ELi4ELi0ELi4ELi4EEELi3EE11outerStrideEv, symObjAddr: 0x5CC8, symBinAddr: 0x100009BA4, symSize: 0x20 }
  - { offsetInCU: 0x38A37, offset: 0x38A37, size: 0x8, addend: 0x0, symName: __ZN5Eigen12DenseStorageIdLi16ELi4ELi4ELi0EE6resizeElll, symObjAddr: 0x5C8C, symBinAddr: 0x100009B68, symSize: 0x20 }
  - { offsetInCU: 0x38A3F, offset: 0x38A3F, size: 0x8, addend: 0x0, symName: __ZNK5Eigen15PlainObjectBaseINS_6MatrixIdLi4ELi4ELi0ELi4ELi4EEEE4dataEv, symObjAddr: 0x5CAC, symBinAddr: 0x100009B88, symSize: 0x1C }
  - { offsetInCU: 0x38AB7, offset: 0x38AB7, size: 0x8, addend: 0x0, symName: __ZN5Eigen8internal19variable_if_dynamicIlLi4EE5valueEv, symObjAddr: 0x5C84, symBinAddr: 0x100009B60, symSize: 0x8 }
  - { offsetInCU: 0x38ABF, offset: 0x38ABF, size: 0x8, addend: 0x0, symName: __ZN5Eigen12DenseStorageIdLi16ELi4ELi4ELi0EE6resizeElll, symObjAddr: 0x5C8C, symBinAddr: 0x100009B68, symSize: 0x20 }
  - { offsetInCU: 0x38B5C, offset: 0x38B5C, size: 0x8, addend: 0x0, symName: __ZN5Eigen8internal14evaluator_baseINS_3MapINS_6MatrixIdLi4ELi4ELi0ELi4ELi4EEELi0ENS_6StrideILi0ELi0EEEEEEC2Ev, symObjAddr: 0x5C70, symBinAddr: 0x100009B4C, symSize: 0x14 }
  - { offsetInCU: 0x38B64, offset: 0x38B64, size: 0x8, addend: 0x0, symName: __ZN5Eigen8internal19variable_if_dynamicIlLi4EE5valueEv, symObjAddr: 0x5C84, symBinAddr: 0x100009B60, symSize: 0x8 }
  - { offsetInCU: 0x38B1D, offset: 0x38B1D, size: 0x8, addend: 0x0, symName: __ZNK5Eigen3MapINS_6MatrixIdLi4ELi4ELi0ELi4ELi4EEELi0ENS_6StrideILi0ELi0EEEE11outerStrideEv, symObjAddr: 0x5C5C, symBinAddr: 0x100009B38, symSize: 0x14 }
  - { offsetInCU: 0x38B25, offset: 0x38B25, size: 0x8, addend: 0x0, symName: __ZN5Eigen8internal14evaluator_baseINS_3MapINS_6MatrixIdLi4ELi4ELi0ELi4ELi4EEELi0ENS_6StrideILi0ELi0EEEEEEC2Ev, symObjAddr: 0x5C70, symBinAddr: 0x100009B4C, symSize: 0x14 }
  - { offsetInCU: 0x38B4D, offset: 0x38B4D, size: 0x8, addend: 0x0, symName: __ZNK5Eigen3MapINS_6MatrixIdLi4ELi4ELi0ELi4ELi4EEELi0ENS_6StrideILi0ELi0EEEE11innerStrideEv, symObjAddr: 0x5C48, symBinAddr: 0x100009B24, symSize: 0x14 }
  - { offsetInCU: 0x38B55, offset: 0x38B55, size: 0x8, addend: 0x0, symName: __ZNK5Eigen3MapINS_6MatrixIdLi4ELi4ELi0ELi4ELi4EEELi0ENS_6StrideILi0ELi0EEEE11outerStrideEv, symObjAddr: 0x5C5C, symBinAddr: 0x100009B38, symSize: 0x14 }
  - { offsetInCU: 0x38B7D, offset: 0x38B7D, size: 0x8, addend: 0x0, symName: __ZNK5Eigen7MapBaseINS_3MapINS_6MatrixIdLi4ELi4ELi0ELi4ELi4EEELi0ENS_6StrideILi0ELi0EEEEELi1EE4dataEv, symObjAddr: 0x5C30, symBinAddr: 0x100009B0C, symSize: 0x18 }
  - { offsetInCU: 0x38B85, offset: 0x38B85, size: 0x8, addend: 0x0, symName: __ZNK5Eigen3MapINS_6MatrixIdLi4ELi4ELi0ELi4ELi4EEELi0ENS_6StrideILi0ELi0EEEE11innerStrideEv, symObjAddr: 0x5C48, symBinAddr: 0x100009B24, symSize: 0x14 }
  - { offsetInCU: 0x38BF1, offset: 0x38BF1, size: 0x8, addend: 0x0, symName: __ZSt4moveIRdEONSt16remove_referenceIT_E4typeEOS2_, symObjAddr: 0x5C1C, symBinAddr: 0x100009AF8, symSize: 0x14 }
  - { offsetInCU: 0x38BF9, offset: 0x38BF9, size: 0x8, addend: 0x0, symName: __ZNK5Eigen7MapBaseINS_3MapINS_6MatrixIdLi4ELi4ELi0ELi4ELi4EEELi0ENS_6StrideILi0ELi0EEEEELi1EE4dataEv, symObjAddr: 0x5C30, symBinAddr: 0x100009B0C, symSize: 0x18 }
  - { offsetInCU: 0x38C01, offset: 0x38C01, size: 0x8, addend: 0x0, symName: __ZN5Eigen8internal47copy_using_evaluator_innervec_CompleteUnrollingINS0_31generic_dense_assignment_kernelINS0_9evaluatorINS_6MatrixIdLi4ELi4ELi0ELi4ELi4EEEEENS3_INS_3MapIS5_Li0ENS_6StrideILi0ELi0EEEEEEENS0_9assign_opIddEELi0EEELi0ELi16EE3runERSE_, symObjAddr: 0x5BEC, symBinAddr: 0x100009AC8, symSize: 0x30 }
  - { offsetInCU: 0x38C09, offset: 0x38C09, size: 0x8, addend: 0x0, symName: __ZSt4moveIRdEONSt16remove_referenceIT_E4typeEOS2_, symObjAddr: 0x5C1C, symBinAddr: 0x100009AF8, symSize: 0x14 }
  - { offsetInCU: 0x38CCC, offset: 0x38CCC, size: 0x8, addend: 0x0, symName: __ZN5Eigen8internal9evaluatorINS_15PlainObjectBaseINS_6MatrixIdLi4ELi4ELi0ELi4ELi4EEEEEEC2ERKS5_, symObjAddr: 0x5B84, symBinAddr: 0x100009A60, symSize: 0x68 }
  - { offsetInCU: 0x38CD4, offset: 0x38CD4, size: 0x8, addend: 0x0, symName: __ZN5Eigen8internal47copy_using_evaluator_innervec_CompleteUnrollingINS0_31generic_dense_assignment_kernelINS0_9evaluatorINS_6MatrixIdLi4ELi4ELi0ELi4ELi4EEEEENS3_INS_3MapIS5_Li0ENS_6StrideILi0ELi0EEEEEEENS0_9assign_opIddEELi0EEELi0ELi16EE3runERSE_, symObjAddr: 0x5BEC, symBinAddr: 0x100009AC8, symSize: 0x30 }
  - { offsetInCU: 0x38CA7, offset: 0x38CA7, size: 0x8, addend: 0x0, symName: __ZN5Eigen15PlainObjectBaseINS_6MatrixIdLi4ELi4ELi0ELi4ELi4EEEE6resizeEll, symObjAddr: 0x597C, symBinAddr: 0x100009858, symSize: 0x208 }
  - { offsetInCU: 0x38CAF, offset: 0x38CAF, size: 0x8, addend: 0x0, symName: __ZN5Eigen8internal9evaluatorINS_15PlainObjectBaseINS_6MatrixIdLi4ELi4ELi0ELi4ELi4EEEEEEC2ERKS5_, symObjAddr: 0x5B84, symBinAddr: 0x100009A60, symSize: 0x68 }
  - { offsetInCU: 0x38D67, offset: 0x38D67, size: 0x8, addend: 0x0, symName: __ZNK5Eigen7MapBaseINS_3MapINS_6MatrixIdLi4ELi4ELi0ELi4ELi4EEELi0ENS_6StrideILi0ELi0EEEEELi0EE4colsEv, symObjAddr: 0x5964, symBinAddr: 0x100009840, symSize: 0x18 }
  - { offsetInCU: 0x38D6F, offset: 0x38D6F, size: 0x8, addend: 0x0, symName: __ZN5Eigen15PlainObjectBaseINS_6MatrixIdLi4ELi4ELi0ELi4ELi4EEEE6resizeEll, symObjAddr: 0x597C, symBinAddr: 0x100009858, symSize: 0x208 }
  - { offsetInCU: 0x38D97, offset: 0x38D97, size: 0x8, addend: 0x0, symName: __ZNK5Eigen7MapBaseINS_3MapINS_6MatrixIdLi4ELi4ELi0ELi4ELi4EEELi0ENS_6StrideILi0ELi0EEEEELi0EE4rowsEv, symObjAddr: 0x594C, symBinAddr: 0x100009828, symSize: 0x18 }
  - { offsetInCU: 0x38D9F, offset: 0x38D9F, size: 0x8, addend: 0x0, symName: __ZNK5Eigen7MapBaseINS_3MapINS_6MatrixIdLi4ELi4ELi0ELi4ELi4EEELi0ENS_6StrideILi0ELi0EEEEELi0EE4colsEv, symObjAddr: 0x5964, symBinAddr: 0x100009840, symSize: 0x18 }
  - { offsetInCU: 0x38E6B, offset: 0x38E6B, size: 0x8, addend: 0x0, symName: __ZN5Eigen8internal17mapbase_evaluatorINS_3MapINS_6MatrixIdLi4ELi4ELi0ELi4ELi4EEELi0ENS_6StrideILi0ELi0EEEEES4_EC2ERKS7_, symObjAddr: 0x58C0, symBinAddr: 0x10000979C, symSize: 0x8C }
  - { offsetInCU: 0x38E73, offset: 0x38E73, size: 0x8, addend: 0x0, symName: __ZNK5Eigen7MapBaseINS_3MapINS_6MatrixIdLi4ELi4ELi0ELi4ELi4EEELi0ENS_6StrideILi0ELi0EEEEELi0EE4rowsEv, symObjAddr: 0x594C, symBinAddr: 0x100009828, symSize: 0x18 }
  - { offsetInCU: 0x38ED8, offset: 0x38ED8, size: 0x8, addend: 0x0, symName: __ZSt4swapIdENSt9enable_ifIXsrSt6__and_IJSt6__not_ISt15__is_tuple_likeIT_EESt21is_move_constructibleIS4_ESt18is_move_assignableIS4_EEE5valueEvE4typeERS4_SE_, symObjAddr: 0x586C, symBinAddr: 0x100009748, symSize: 0x54 }
  - { offsetInCU: 0x38EE0, offset: 0x38EE0, size: 0x8, addend: 0x0, symName: __ZN5Eigen8internal17mapbase_evaluatorINS_3MapINS_6MatrixIdLi4ELi4ELi0ELi4ELi4EEELi0ENS_6StrideILi0ELi0EEEEES4_EC2ERKS7_, symObjAddr: 0x58C0, symBinAddr: 0x10000979C, symSize: 0x8C }
  - { offsetInCU: 0x38F19, offset: 0x38F19, size: 0x8, addend: 0x0, symName: __ZN5Eigen8internal14evaluator_baseINS_5BlockINS_6MatrixIdLin1ELin1ELi0ELin1ELin1EEELi1ELin1ELb0EEEEC2Ev, symObjAddr: 0x5858, symBinAddr: 0x100009734, symSize: 0x14 }
  - { offsetInCU: 0x38F21, offset: 0x38F21, size: 0x8, addend: 0x0, symName: __ZSt4swapIdENSt9enable_ifIXsrSt6__and_IJSt6__not_ISt15__is_tuple_likeIT_EESt21is_move_constructibleIS4_ESt18is_move_assignableIS4_EEE5valueEvE4typeERS4_SE_, symObjAddr: 0x586C, symBinAddr: 0x100009748, symSize: 0x54 }
  - { offsetInCU: 0x38EE0, offset: 0x38EE0, size: 0x8, addend: 0x0, symName: __ZNK5Eigen8internal15BlockImpl_denseINS_6MatrixIdLin1ELin1ELi0ELin1ELin1EEELi1ELin1ELb0ELb1EE11outerStrideEv, symObjAddr: 0x5838, symBinAddr: 0x100009714, symSize: 0x20 }
  - { offsetInCU: 0x38EE8, offset: 0x38EE8, size: 0x8, addend: 0x0, symName: __ZN5Eigen8internal14evaluator_baseINS_5BlockINS_6MatrixIdLin1ELin1ELi0ELin1ELin1EEELi1ELin1ELb0EEEEC2Ev, symObjAddr: 0x5858, symBinAddr: 0x100009734, symSize: 0x14 }
  - { offsetInCU: 0x38F10, offset: 0x38F10, size: 0x8, addend: 0x0, symName: __ZNK5Eigen8internal15BlockImpl_denseINS_6MatrixIdLin1ELin1ELi0ELin1ELin1EEELi1ELin1ELb0ELb1EE11innerStrideEv, symObjAddr: 0x5818, symBinAddr: 0x1000096F4, symSize: 0x20 }
  - { offsetInCU: 0x38F18, offset: 0x38F18, size: 0x8, addend: 0x0, symName: __ZNK5Eigen8internal15BlockImpl_denseINS_6MatrixIdLin1ELin1ELi0ELin1ELin1EEELi1ELin1ELb0ELb1EE11outerStrideEv, symObjAddr: 0x5838, symBinAddr: 0x100009714, symSize: 0x20 }
  - { offsetInCU: 0x38F40, offset: 0x38F40, size: 0x8, addend: 0x0, symName: __ZNK5Eigen7MapBaseINS_5BlockINS_6MatrixIdLin1ELin1ELi0ELin1ELin1EEELi1ELin1ELb0EEELi1EE4dataEv, symObjAddr: 0x5800, symBinAddr: 0x1000096DC, symSize: 0x18 }
  - { offsetInCU: 0x38F48, offset: 0x38F48, size: 0x8, addend: 0x0, symName: __ZNK5Eigen8internal15BlockImpl_denseINS_6MatrixIdLin1ELin1ELi0ELin1ELin1EEELi1ELin1ELb0ELb1EE11innerStrideEv, symObjAddr: 0x5818, symBinAddr: 0x1000096F4, symSize: 0x20 }
  - { offsetInCU: 0x38F97, offset: 0x38F97, size: 0x8, addend: 0x0, symName: __ZSt3maxIdERKT_S2_S2_, symObjAddr: 0x57C4, symBinAddr: 0x1000096A0, symSize: 0x3C }
  - { offsetInCU: 0x38F9F, offset: 0x38F9F, size: 0x8, addend: 0x0, symName: __ZNK5Eigen7MapBaseINS_5BlockINS_6MatrixIdLin1ELin1ELi0ELin1ELin1EEELi1ELin1ELb0EEELi1EE4dataEv, symObjAddr: 0x5800, symBinAddr: 0x1000096DC, symSize: 0x18 }
  - { offsetInCU: 0x38FD1, offset: 0x38FD1, size: 0x8, addend: 0x0, symName: __ZN5Eigen8internal21dense_assignment_loopINS0_31generic_dense_assignment_kernelINS0_9evaluatorINS_6MatrixIdLi4ELi4ELi0ELi4ELi4EEEEENS3_INS_3MapIS5_Li0ENS_6StrideILi0ELi0EEEEEEENS0_9assign_opIddEELi0EEELi2ELi2EE3runERSE_, symObjAddr: 0x57A4, symBinAddr: 0x100009680, symSize: 0x20 }
  - { offsetInCU: 0x38FD9, offset: 0x38FD9, size: 0x8, addend: 0x0, symName: __ZSt3maxIdERKT_S2_S2_, symObjAddr: 0x57C4, symBinAddr: 0x1000096A0, symSize: 0x3C }
  - { offsetInCU: 0x39124, offset: 0x39124, size: 0x8, addend: 0x0, symName: __ZN5Eigen8internal31generic_dense_assignment_kernelINS0_9evaluatorINS_6MatrixIdLi4ELi4ELi0ELi4ELi4EEEEENS2_INS_3MapIS4_Li0ENS_6StrideILi0ELi0EEEEEEENS0_9assign_opIddEELi0EEC1ERS5_RKSA_RKSC_RS4_, symObjAddr: 0x5750, symBinAddr: 0x10000962C, symSize: 0x54 }
  - { offsetInCU: 0x3912C, offset: 0x3912C, size: 0x8, addend: 0x0, symName: __ZN5Eigen8internal21dense_assignment_loopINS0_31generic_dense_assignment_kernelINS0_9evaluatorINS_6MatrixIdLi4ELi4ELi0ELi4ELi4EEEEENS3_INS_3MapIS5_Li0ENS_6StrideILi0ELi0EEEEEEENS0_9assign_opIddEELi0EEELi2ELi2EE3runERSE_, symObjAddr: 0x57A4, symBinAddr: 0x100009680, symSize: 0x20 }
  - { offsetInCU: 0x390C1, offset: 0x390C1, size: 0x8, addend: 0x0, symName: __ZNK5Eigen9EigenBaseINS_6MatrixIdLi4ELi4ELi0ELi4ELi4EEEE18const_cast_derivedEv, symObjAddr: 0x573C, symBinAddr: 0x100009618, symSize: 0x14 }
  - { offsetInCU: 0x390C9, offset: 0x390C9, size: 0x8, addend: 0x0, symName: __ZN5Eigen8internal31generic_dense_assignment_kernelINS0_9evaluatorINS_6MatrixIdLi4ELi4ELi0ELi4ELi4EEEEENS2_INS_3MapIS4_Li0ENS_6StrideILi0ELi0EEEEEEENS0_9assign_opIddEELi0EEC1ERS5_RKSA_RKSC_RS4_, symObjAddr: 0x5750, symBinAddr: 0x10000962C, symSize: 0x54 }
  - { offsetInCU: 0x39166, offset: 0x39166, size: 0x8, addend: 0x0, symName: __ZN5Eigen8internal14evaluator_baseINS_6MatrixIdLi4ELi4ELi0ELi4ELi4EEEED2Ev, symObjAddr: 0x5728, symBinAddr: 0x100009604, symSize: 0x14 }
  - { offsetInCU: 0x3916E, offset: 0x3916E, size: 0x8, addend: 0x0, symName: __ZNK5Eigen9EigenBaseINS_6MatrixIdLi4ELi4ELi0ELi4ELi4EEEE18const_cast_derivedEv, symObjAddr: 0x573C, symBinAddr: 0x100009618, symSize: 0x14 }
  - { offsetInCU: 0x391BF, offset: 0x391BF, size: 0x8, addend: 0x0, symName: __ZN5Eigen8internal9evaluatorINS_6MatrixIdLi4ELi4ELi0ELi4ELi4EEEEC1ERKS3_, symObjAddr: 0x5700, symBinAddr: 0x1000095DC, symSize: 0x28 }
  - { offsetInCU: 0x391C7, offset: 0x391C7, size: 0x8, addend: 0x0, symName: __ZN5Eigen8internal14evaluator_baseINS_6MatrixIdLi4ELi4ELi0ELi4ELi4EEEED2Ev, symObjAddr: 0x5728, symBinAddr: 0x100009604, symSize: 0x14 }
  - { offsetInCU: 0x392B0, offset: 0x392B0, size: 0x8, addend: 0x0, symName: __ZN5Eigen8internal17resize_if_allowedINS_6MatrixIdLi4ELi4ELi0ELi4ELi4EEENS_3MapIS3_Li0ENS_6StrideILi0ELi0EEEEEddEEvRT_RKT0_RKNS0_9assign_opIT1_T2_EE, symObjAddr: 0x55E8, symBinAddr: 0x1000094C4, symSize: 0x118 }
  - { offsetInCU: 0x392B8, offset: 0x392B8, size: 0x8, addend: 0x0, symName: __ZN5Eigen8internal9evaluatorINS_6MatrixIdLi4ELi4ELi0ELi4ELi4EEEEC1ERKS3_, symObjAddr: 0x5700, symBinAddr: 0x1000095DC, symSize: 0x28 }
  - { offsetInCU: 0x39333, offset: 0x39333, size: 0x8, addend: 0x0, symName: __ZN5Eigen8internal14evaluator_baseINS_3MapINS_6MatrixIdLi4ELi4ELi0ELi4ELi4EEELi0ENS_6StrideILi0ELi0EEEEEED2Ev, symObjAddr: 0x55D4, symBinAddr: 0x1000094B0, symSize: 0x14 }
  - { offsetInCU: 0x3933B, offset: 0x3933B, size: 0x8, addend: 0x0, symName: __ZN5Eigen8internal17resize_if_allowedINS_6MatrixIdLi4ELi4ELi0ELi4ELi4EEENS_3MapIS3_Li0ENS_6StrideILi0ELi0EEEEEddEEvRT_RKT0_RKNS0_9assign_opIT1_T2_EE, symObjAddr: 0x55E8, symBinAddr: 0x1000094C4, symSize: 0x118 }
  - { offsetInCU: 0x3938C, offset: 0x3938C, size: 0x8, addend: 0x0, symName: __ZN5Eigen8internal9evaluatorINS_3MapINS_6MatrixIdLi4ELi4ELi0ELi4ELi4EEELi0ENS_6StrideILi0ELi0EEEEEEC1ERKS7_, symObjAddr: 0x55AC, symBinAddr: 0x100009488, symSize: 0x28 }
  - { offsetInCU: 0x39394, offset: 0x39394, size: 0x8, addend: 0x0, symName: __ZN5Eigen8internal14evaluator_baseINS_3MapINS_6MatrixIdLi4ELi4ELi0ELi4ELi4EEELi0ENS_6StrideILi0ELi0EEEEEED2Ev, symObjAddr: 0x55D4, symBinAddr: 0x1000094B0, symSize: 0x14 }
  - { offsetInCU: 0x3935B, offset: 0x3935B, size: 0x8, addend: 0x0, symName: __ZN5Eigen8internal27checkTransposeAliasing_implINS_6MatrixIdLi4ELi4ELi0ELi4ELi4EEENS_3MapIS3_Li0ENS_6StrideILi0ELi0EEEEELb0EE3runERKS3_RKS7_, symObjAddr: 0x5594, symBinAddr: 0x100009470, symSize: 0x18 }
  - { offsetInCU: 0x39363, offset: 0x39363, size: 0x8, addend: 0x0, symName: __ZN5Eigen8internal9evaluatorINS_3MapINS_6MatrixIdLi4ELi4ELi0ELi4ELi4EEELi0ENS_6StrideILi0ELi0EEEEEEC1ERKS7_, symObjAddr: 0x55AC, symBinAddr: 0x100009488, symSize: 0x28 }
  - { offsetInCU: 0x39391, offset: 0x39391, size: 0x8, addend: 0x0, symName: __ZNK5Eigen8internal14swap_assign_opIdE11assignCoeffERdRKd, symObjAddr: 0x5568, symBinAddr: 0x100009444, symSize: 0x2C }
  - { offsetInCU: 0x39399, offset: 0x39399, size: 0x8, addend: 0x0, symName: __ZN5Eigen8internal27checkTransposeAliasing_implINS_6MatrixIdLi4ELi4ELi0ELi4ELi4EEENS_3MapIS3_Li0ENS_6StrideILi0ELi0EEEEELb0EE3runERKS3_RKS7_, symObjAddr: 0x5594, symBinAddr: 0x100009470, symSize: 0x18 }
  - { offsetInCU: 0x393E7, offset: 0x393E7, size: 0x8, addend: 0x0, symName: __ZN5Eigen8internal17mapbase_evaluatorINS_5BlockINS_6MatrixIdLin1ELin1ELi0ELin1ELin1EEELi1ELin1ELb0EEENS3_IdLi1ELin1ELi1ELi1ELin1EEEE8coeffRefEl, symObjAddr: 0x5520, symBinAddr: 0x1000093FC, symSize: 0x48 }
  - { offsetInCU: 0x393EF, offset: 0x393EF, size: 0x8, addend: 0x0, symName: __ZNK5Eigen8internal14swap_assign_opIdE11assignCoeffERdRKd, symObjAddr: 0x5568, symBinAddr: 0x100009444, symSize: 0x2C }
  - { offsetInCU: 0x394E4, offset: 0x394E4, size: 0x8, addend: 0x0, symName: __ZN5Eigen8internal17mapbase_evaluatorINS_5BlockINS_6MatrixIdLin1ELin1ELi0ELin1ELin1EEELi1ELin1ELb0EEENS3_IdLi1ELin1ELi1ELi1ELin1EEEEC2ERKS5_, symObjAddr: 0x5494, symBinAddr: 0x100009370, symSize: 0x8C }
  - { offsetInCU: 0x394EC, offset: 0x394EC, size: 0x8, addend: 0x0, symName: __ZN5Eigen8internal17mapbase_evaluatorINS_5BlockINS_6MatrixIdLin1ELin1ELi0ELin1ELin1EEELi1ELin1ELb0EEENS3_IdLi1ELin1ELi1ELi1ELin1EEEE8coeffRefEl, symObjAddr: 0x5520, symBinAddr: 0x1000093FC, symSize: 0x48 }
  - { offsetInCU: 0x3956C, offset: 0x3956C, size: 0x8, addend: 0x0, symName: __ZN5Eigen8internal9evaluatorIKNS_5BlockINS_6MatrixIdLin1ELin1ELi0ELin1ELin1EEELi1ELin1ELb0EEEEC1ERS6_, symObjAddr: 0x546C, symBinAddr: 0x100009348, symSize: 0x28 }
  - { offsetInCU: 0x39574, offset: 0x39574, size: 0x8, addend: 0x0, symName: __ZN5Eigen8internal17mapbase_evaluatorINS_5BlockINS_6MatrixIdLin1ELin1ELi0ELin1ELin1EEELi1ELin1ELb0EEENS3_IdLi1ELin1ELi1ELi1ELin1EEEEC2ERKS5_, symObjAddr: 0x5494, symBinAddr: 0x100009370, symSize: 0x8C }
  - { offsetInCU: 0x39541, offset: 0x39541, size: 0x8, addend: 0x0, symName: __ZNK5Eigen12CwiseUnaryOpINS_8internal13scalar_abs_opIdEEKNS_5BlockINS_6MatrixIdLin1ELin1ELi0ELin1ELin1EEELi1ELin1ELb0EEEE16nestedExpressionEv, symObjAddr: 0x5458, symBinAddr: 0x100009334, symSize: 0x14 }
  - { offsetInCU: 0x39549, offset: 0x39549, size: 0x8, addend: 0x0, symName: __ZN5Eigen8internal9evaluatorIKNS_5BlockINS_6MatrixIdLin1ELin1ELi0ELin1ELin1EEELi1ELin1ELb0EEEEC1ERS6_, symObjAddr: 0x546C, symBinAddr: 0x100009348, symSize: 0x28 }
  - { offsetInCU: 0x39571, offset: 0x39571, size: 0x8, addend: 0x0, symName: __ZNK5Eigen12CwiseUnaryOpINS_8internal13scalar_abs_opIdEEKNS_5BlockINS_6MatrixIdLin1ELin1ELi0ELin1ELin1EEELi1ELin1ELb0EEEE7functorEv, symObjAddr: 0x5440, symBinAddr: 0x10000931C, symSize: 0x18 }
  - { offsetInCU: 0x39579, offset: 0x39579, size: 0x8, addend: 0x0, symName: __ZNK5Eigen12CwiseUnaryOpINS_8internal13scalar_abs_opIdEEKNS_5BlockINS_6MatrixIdLin1ELin1ELi0ELin1ELin1EEELi1ELin1ELb0EEEE16nestedExpressionEv, symObjAddr: 0x5458, symBinAddr: 0x100009334, symSize: 0x14 }
  - { offsetInCU: 0x396CC, offset: 0x396CC, size: 0x8, addend: 0x0, symName: __ZN5Eigen8internal26call_dense_assignment_loopINS_6MatrixIdLi4ELi4ELi0ELi4ELi4EEENS_3MapIS3_Li0ENS_6StrideILi0ELi0EEEEENS0_9assign_opIddEEEEvRT_RKT0_RKT1_, symObjAddr: 0x5390, symBinAddr: 0x10000926C, symSize: 0xB0 }
  - { offsetInCU: 0x396D4, offset: 0x396D4, size: 0x8, addend: 0x0, symName: __ZNK5Eigen12CwiseUnaryOpINS_8internal13scalar_abs_opIdEEKNS_5BlockINS_6MatrixIdLin1ELin1ELi0ELin1ELin1EEELi1ELin1ELb0EEEE7functorEv, symObjAddr: 0x5440, symBinAddr: 0x10000931C, symSize: 0x18 }
  - { offsetInCU: 0x3970C, offset: 0x3970C, size: 0x8, addend: 0x0, symName: __ZN5Eigen8internal9evaluatorINS_6MatrixIdLi4ELi4ELi0ELi4ELi4EEEED1Ev, symObjAddr: 0x5370, symBinAddr: 0x10000924C, symSize: 0x20 }
  - { offsetInCU: 0x39714, offset: 0x39714, size: 0x8, addend: 0x0, symName: __ZN5Eigen8internal26call_dense_assignment_loopINS_6MatrixIdLi4ELi4ELi0ELi4ELi4EEENS_3MapIS3_Li0ENS_6StrideILi0ELi0EEEEENS0_9assign_opIddEEEEvRT_RKT0_RKT1_, symObjAddr: 0x5390, symBinAddr: 0x10000926C, symSize: 0xB0 }
  - { offsetInCU: 0x3977F, offset: 0x3977F, size: 0x8, addend: 0x0, symName: __ZN5Eigen8internal9evaluatorINS_15PlainObjectBaseINS_6MatrixIdLi4ELi4ELi0ELi4ELi4EEEEEED2Ev, symObjAddr: 0x5350, symBinAddr: 0x10000922C, symSize: 0x20 }
  - { offsetInCU: 0x39787, offset: 0x39787, size: 0x8, addend: 0x0, symName: __ZN5Eigen8internal9evaluatorINS_6MatrixIdLi4ELi4ELi0ELi4ELi4EEEED1Ev, symObjAddr: 0x5370, symBinAddr: 0x10000924C, symSize: 0x20 }
  - { offsetInCU: 0x397E8, offset: 0x397E8, size: 0x8, addend: 0x0, symName: __ZN5Eigen8internal9evaluatorINS_3MapINS_6MatrixIdLi4ELi4ELi0ELi4ELi4EEELi0ENS_6StrideILi0ELi0EEEEEED1Ev, symObjAddr: 0x5330, symBinAddr: 0x10000920C, symSize: 0x20 }
  - { offsetInCU: 0x397F0, offset: 0x397F0, size: 0x8, addend: 0x0, symName: __ZN5Eigen8internal9evaluatorINS_15PlainObjectBaseINS_6MatrixIdLi4ELi4ELi0ELi4ELi4EEEEEED2Ev, symObjAddr: 0x5350, symBinAddr: 0x10000922C, symSize: 0x20 }
  - { offsetInCU: 0x39851, offset: 0x39851, size: 0x8, addend: 0x0, symName: __ZN5Eigen8internal17mapbase_evaluatorINS_3MapINS_6MatrixIdLi4ELi4ELi0ELi4ELi4EEELi0ENS_6StrideILi0ELi0EEEEES4_ED2Ev, symObjAddr: 0x5310, symBinAddr: 0x1000091EC, symSize: 0x20 }
  - { offsetInCU: 0x39859, offset: 0x39859, size: 0x8, addend: 0x0, symName: __ZN5Eigen8internal9evaluatorINS_3MapINS_6MatrixIdLi4ELi4ELi0ELi4ELi4EEELi0ENS_6StrideILi0ELi0EEEEEED1Ev, symObjAddr: 0x5330, symBinAddr: 0x10000920C, symSize: 0x20 }
  - { offsetInCU: 0x398E4, offset: 0x398E4, size: 0x8, addend: 0x0, symName: __ZN5Eigen8internal18check_for_aliasingINS_6MatrixIdLi4ELi4ELi0ELi4ELi4EEENS_3MapIS3_Li0ENS_6StrideILi0ELi0EEEEEEEvRKT_RKT0_, symObjAddr: 0x52B0, symBinAddr: 0x10000918C, symSize: 0x60 }
  - { offsetInCU: 0x398EC, offset: 0x398EC, size: 0x8, addend: 0x0, symName: __ZN5Eigen8internal17mapbase_evaluatorINS_3MapINS_6MatrixIdLi4ELi4ELi0ELi4ELi4EEELi0ENS_6StrideILi0ELi0EEEEES4_ED2Ev, symObjAddr: 0x5310, symBinAddr: 0x1000091EC, symSize: 0x20 }
  - { offsetInCU: 0x39883, offset: 0x39883, size: 0x8, addend: 0x0, symName: __ZNK5Eigen7MapBaseINS_5BlockINS_6MatrixIdLin1ELin1ELi0ELin1ELin1EEELin1ELi1ELb1EEELi0EE11checkSanityIS4_EEvNSt9enable_ifIXeqsrNS_8internal6traitsIT_EE9AlignmentLi0EEPvE4typeE, symObjAddr: 0x5250, symBinAddr: 0x10000912C, symSize: 0x60 }
  - { offsetInCU: 0x3988B, offset: 0x3988B, size: 0x8, addend: 0x0, symName: __ZN5Eigen8internal18check_for_aliasingINS_6MatrixIdLi4ELi4ELi0ELi4ELi4EEENS_3MapIS3_Li0ENS_6StrideILi0ELi0EEEEEEEvRKT_RKT0_, symObjAddr: 0x52B0, symBinAddr: 0x10000918C, symSize: 0x60 }
  - { offsetInCU: 0x39976, offset: 0x39976, size: 0x8, addend: 0x0, symName: __ZN5Eigen9DenseBaseINS_5BlockINS_6MatrixIdLin1ELin1ELi0ELin1ELin1EEELin1ELi1ELb1EEEEC2Ev, symObjAddr: 0x523C, symBinAddr: 0x100009118, symSize: 0x14 }
  - { offsetInCU: 0x3997E, offset: 0x3997E, size: 0x8, addend: 0x0, symName: __ZNK5Eigen7MapBaseINS_5BlockINS_6MatrixIdLin1ELin1ELi0ELin1ELin1EEELin1ELi1ELb1EEELi0EE11checkSanityIS4_EEvNSt9enable_ifIXeqsrNS_8internal6traitsIT_EE9AlignmentLi0EEPvE4typeE, symObjAddr: 0x5250, symBinAddr: 0x10000912C, symSize: 0x60 }
  - { offsetInCU: 0x3994C, offset: 0x3994C, size: 0x8, addend: 0x0, symName: __ZN5Eigen8internal31generic_dense_assignment_kernelINS0_9evaluatorINS_5BlockINS_6MatrixIdLin1ELin1ELi0ELin1ELin1EEELi1ELin1ELb0EEEEES7_NS0_14swap_assign_opIdEELi1EE11assignCoeffEl, symObjAddr: 0x51DC, symBinAddr: 0x1000090B8, symSize: 0x60 }
  - { offsetInCU: 0x39954, offset: 0x39954, size: 0x8, addend: 0x0, symName: __ZN5Eigen9DenseBaseINS_5BlockINS_6MatrixIdLin1ELin1ELi0ELin1ELin1EEELin1ELi1ELb1EEEEC2Ev, symObjAddr: 0x523C, symBinAddr: 0x100009118, symSize: 0x14 }
  - { offsetInCU: 0x39990, offset: 0x39990, size: 0x8, addend: 0x0, symName: __ZNK5Eigen9EigenBaseINS_5BlockINS_6MatrixIdLin1ELin1ELi0ELin1ELin1EEELi1ELin1ELb0EEEE4sizeEv, symObjAddr: 0x51A8, symBinAddr: 0x100009084, symSize: 0x34 }
  - { offsetInCU: 0x39998, offset: 0x39998, size: 0x8, addend: 0x0, symName: __ZN5Eigen8internal31generic_dense_assignment_kernelINS0_9evaluatorINS_5BlockINS_6MatrixIdLin1ELin1ELi0ELin1ELin1EEELi1ELin1ELb0EEEEES7_NS0_14swap_assign_opIdEELi1EE11assignCoeffEl, symObjAddr: 0x51DC, symBinAddr: 0x1000090B8, symSize: 0x60 }
  - { offsetInCU: 0x39AD9, offset: 0x39AD9, size: 0x8, addend: 0x0, symName: __ZN5Eigen8internal31generic_dense_assignment_kernelINS0_9evaluatorINS_5BlockINS_6MatrixIdLin1ELin1ELi0ELin1ELin1EEELi1ELin1ELb0EEEEES7_NS0_14swap_assign_opIdEELi1EEC2ERS7_RKS7_RKS9_RS6_, symObjAddr: 0x5154, symBinAddr: 0x100009030, symSize: 0x54 }
  - { offsetInCU: 0x39AE1, offset: 0x39AE1, size: 0x8, addend: 0x0, symName: __ZNK5Eigen9EigenBaseINS_5BlockINS_6MatrixIdLin1ELin1ELi0ELin1ELin1EEELi1ELin1ELb0EEEE4sizeEv, symObjAddr: 0x51A8, symBinAddr: 0x100009084, symSize: 0x34 }
  - { offsetInCU: 0x39B28, offset: 0x39B28, size: 0x8, addend: 0x0, symName: __ZN5Eigen8internal15block_evaluatorINS_6MatrixIdLin1ELin1ELi0ELin1ELin1EEELi1ELin1ELb0ELb1EEC2ERKNS_5BlockIS3_Li1ELin1ELb0EEE, symObjAddr: 0x512C, symBinAddr: 0x100009008, symSize: 0x28 }
  - { offsetInCU: 0x39B30, offset: 0x39B30, size: 0x8, addend: 0x0, symName: __ZN5Eigen8internal31generic_dense_assignment_kernelINS0_9evaluatorINS_5BlockINS_6MatrixIdLin1ELin1ELi0ELin1ELin1EEELi1ELin1ELb0EEEEES7_NS0_14swap_assign_opIdEELi1EEC2ERS7_RKS7_RKS9_RS6_, symObjAddr: 0x5154, symBinAddr: 0x100009030, symSize: 0x54 }
  - { offsetInCU: 0x39AF9, offset: 0x39AF9, size: 0x8, addend: 0x0, symName: __ZN5Eigen8internal12pminmax_implILi0EE3runIdZNS0_4pmaxILi0EdEET0_RKS5_S7_EUlRKdS9_E_EET_RKSB_SD_S5_, symObjAddr: 0x5100, symBinAddr: 0x100008FDC, symSize: 0x2C }
  - { offsetInCU: 0x39B01, offset: 0x39B01, size: 0x8, addend: 0x0, symName: __ZN5Eigen8internal15block_evaluatorINS_6MatrixIdLin1ELin1ELi0ELin1ELin1EEELi1ELin1ELb0ELb1EEC2ERKNS_5BlockIS3_Li1ELin1ELb0EEE, symObjAddr: 0x512C, symBinAddr: 0x100009008, symSize: 0x28 }
  - { offsetInCU: 0x39BA5, offset: 0x39BA5, size: 0x8, addend: 0x0, symName: __ZN5Eigen8internal4pmaxIdEET_RKS2_S4_, symObjAddr: 0x50C8, symBinAddr: 0x100008FA4, symSize: 0x38 }
  - { offsetInCU: 0x39BAD, offset: 0x39BAD, size: 0x8, addend: 0x0, symName: __ZN5Eigen8internal12pminmax_implILi0EE3runIdZNS0_4pmaxILi0EdEET0_RKS5_S7_EUlRKdS9_E_EET_RKSB_SD_S5_, symObjAddr: 0x5100, symBinAddr: 0x100008FDC, symSize: 0x2C }
  - { offsetInCU: 0x39D24, offset: 0x39D24, size: 0x8, addend: 0x0, symName: __ZN5Eigen8internal15unary_evaluatorINS_12CwiseUnaryOpINS0_13scalar_abs_opIdEEKNS_5BlockINS_6MatrixIdLin1ELin1ELi0ELin1ELin1EEELi1ELin1ELb0EEEEENS0_10IndexBasedEdE4DataC1ERKSA_, symObjAddr: 0x5080, symBinAddr: 0x100008F5C, symSize: 0x48 }
  - { offsetInCU: 0x39D2C, offset: 0x39D2C, size: 0x8, addend: 0x0, symName: __ZN5Eigen8internal4pmaxIdEET_RKS2_S4_, symObjAddr: 0x50C8, symBinAddr: 0x100008FA4, symSize: 0x38 }
  - { offsetInCU: 0x39D5E, offset: 0x39D5E, size: 0x8, addend: 0x0, symName: __ZN5Eigen8internal14evaluator_baseINS_12CwiseUnaryOpINS0_13scalar_abs_opIdEEKNS_5BlockINS_6MatrixIdLin1ELin1ELi0ELin1ELin1EEELi1ELin1ELb0EEEEEEC2Ev, symObjAddr: 0x506C, symBinAddr: 0x100008F48, symSize: 0x14 }
  - { offsetInCU: 0x39D66, offset: 0x39D66, size: 0x8, addend: 0x0, symName: __ZN5Eigen8internal15unary_evaluatorINS_12CwiseUnaryOpINS0_13scalar_abs_opIdEEKNS_5BlockINS_6MatrixIdLin1ELin1ELi0ELin1ELin1EEELi1ELin1ELb0EEEEENS0_10IndexBasedEdE4DataC1ERKSA_, symObjAddr: 0x5080, symBinAddr: 0x100008F5C, symSize: 0x48 }
  - { offsetInCU: 0x39CF9, offset: 0x39CF9, size: 0x8, addend: 0x0, symName: __ZNK5Eigen7MapBaseINS_5BlockINS_6MatrixIdLin1ELin1ELi0ELin1ELin1EEELi1ELin1ELb0EEELi0EE11checkSanityIS4_EEvNSt9enable_ifIXeqsrNS_8internal6traitsIT_EE9AlignmentLi0EEPvE4typeE, symObjAddr: 0x500C, symBinAddr: 0x100008EE8, symSize: 0x60 }
  - { offsetInCU: 0x39D01, offset: 0x39D01, size: 0x8, addend: 0x0, symName: __ZN5Eigen8internal14evaluator_baseINS_12CwiseUnaryOpINS0_13scalar_abs_opIdEEKNS_5BlockINS_6MatrixIdLin1ELin1ELi0ELin1ELin1EEELi1ELin1ELb0EEEEEEC2Ev, symObjAddr: 0x506C, symBinAddr: 0x100008F48, symSize: 0x14 }
  - { offsetInCU: 0x39DE6, offset: 0x39DE6, size: 0x8, addend: 0x0, symName: __ZN5Eigen8internal19variable_if_dynamicIlLi1EEC1El, symObjAddr: 0x4FB4, symBinAddr: 0x100008E90, symSize: 0x58 }
  - { offsetInCU: 0x39DEE, offset: 0x39DEE, size: 0x8, addend: 0x0, symName: __ZNK5Eigen7MapBaseINS_5BlockINS_6MatrixIdLin1ELin1ELi0ELin1ELin1EEELi1ELin1ELb0EEELi0EE11checkSanityIS4_EEvNSt9enable_ifIXeqsrNS_8internal6traitsIT_EE9AlignmentLi0EEPvE4typeE, symObjAddr: 0x500C, symBinAddr: 0x100008EE8, symSize: 0x60 }
  - { offsetInCU: 0x39E76, offset: 0x39E76, size: 0x8, addend: 0x0, symName: __ZN5Eigen9DenseBaseINS_5BlockINS_6MatrixIdLin1ELin1ELi0ELin1ELin1EEELi1ELin1ELb0EEEEC2Ev, symObjAddr: 0x4FA0, symBinAddr: 0x100008E7C, symSize: 0x14 }
  - { offsetInCU: 0x39E7E, offset: 0x39E7E, size: 0x8, addend: 0x0, symName: __ZN5Eigen8internal19variable_if_dynamicIlLi1EEC1El, symObjAddr: 0x4FB4, symBinAddr: 0x100008E90, symSize: 0x58 }
  - { offsetInCU: 0x39E4C, offset: 0x39E4C, size: 0x8, addend: 0x0, symName: __ZN5Eigen8internal10AssignmentINS_6MatrixIdLi4ELi4ELi0ELi4ELi4EEENS_3MapIS3_Li0ENS_6StrideILi0ELi0EEEEENS0_9assign_opIddEENS0_11Dense2DenseEvE3runERS3_RKS7_RKS9_, symObjAddr: 0x4F64, symBinAddr: 0x100008E40, symSize: 0x3C }
  - { offsetInCU: 0x39E54, offset: 0x39E54, size: 0x8, addend: 0x0, symName: __ZN5Eigen9DenseBaseINS_5BlockINS_6MatrixIdLin1ELin1ELi0ELin1ELin1EEELi1ELin1ELb0EEEEC2Ev, symObjAddr: 0x4FA0, symBinAddr: 0x100008E7C, symSize: 0x14 }
  - { offsetInCU: 0x39F0C, offset: 0x39F0C, size: 0x8, addend: 0x0, symName: __ZN5Eigen8internal28check_static_allocation_sizeIdLi16EEEvv, symObjAddr: 0x4F5C, symBinAddr: 0x100008E38, symSize: 0x8 }
  - { offsetInCU: 0x39F14, offset: 0x39F14, size: 0x8, addend: 0x0, symName: __ZN5Eigen8internal10AssignmentINS_6MatrixIdLi4ELi4ELi0ELi4ELi4EEENS_3MapIS3_Li0ENS_6StrideILi0ELi0EEEEENS0_9assign_opIddEENS0_11Dense2DenseEvE3runERS3_RKS7_RKS9_, symObjAddr: 0x4F64, symBinAddr: 0x100008E40, symSize: 0x3C }
  - { offsetInCU: 0x39FBB, offset: 0x39FBB, size: 0x8, addend: 0x0, symName: __ZN5Eigen7MapBaseINS_5BlockINS_6MatrixIdLin1ELin1ELi0ELin1ELin1EEELin1ELi1ELb1EEELi0EEC2EPdll, symObjAddr: 0x4E28, symBinAddr: 0x100008D04, symSize: 0x134 }
  - { offsetInCU: 0x39FC3, offset: 0x39FC3, size: 0x8, addend: 0x0, symName: __ZN5Eigen8internal28check_static_allocation_sizeIdLi16EEEvv, symObjAddr: 0x4F5C, symBinAddr: 0x100008E38, symSize: 0x8 }
  - { offsetInCU: 0x3A03A, offset: 0x3A03A, size: 0x8, addend: 0x0, symName: __ZN5Eigen10MatrixBaseINS_5BlockINS_6MatrixIdLin1ELin1ELi0ELin1ELin1EEELin1ELi1ELb1EEEEC2Ev, symObjAddr: 0x4E08, symBinAddr: 0x100008CE4, symSize: 0x20 }
  - { offsetInCU: 0x3A042, offset: 0x3A042, size: 0x8, addend: 0x0, symName: __ZN5Eigen7MapBaseINS_5BlockINS_6MatrixIdLin1ELin1ELi0ELin1ELin1EEELin1ELi1ELb1EEELi0EEC2EPdll, symObjAddr: 0x4E28, symBinAddr: 0x100008D04, symSize: 0x134 }
  - { offsetInCU: 0x3A00E, offset: 0x3A00E, size: 0x8, addend: 0x0, symName: __ZN5Eigen8internal21dense_assignment_loopINS0_31generic_dense_assignment_kernelINS0_9evaluatorINS_5BlockINS_6MatrixIdLin1ELin1ELi0ELin1ELin1EEELi1ELin1ELb0EEEEES8_NS0_14swap_assign_opIdEELi0EEELi1ELi0EE3runERSB_, symObjAddr: 0x4DB0, symBinAddr: 0x100008C8C, symSize: 0x58 }
  - { offsetInCU: 0x3A016, offset: 0x3A016, size: 0x8, addend: 0x0, symName: __ZN5Eigen10MatrixBaseINS_5BlockINS_6MatrixIdLin1ELin1ELi0ELin1ELin1EEELin1ELi1ELb1EEEEC2Ev, symObjAddr: 0x4E08, symBinAddr: 0x100008CE4, symSize: 0x20 }
  - { offsetInCU: 0x3A07A, offset: 0x3A07A, size: 0x8, addend: 0x0, symName: __ZNK5Eigen8internal31generic_dense_assignment_kernelINS0_9evaluatorINS_5BlockINS_6MatrixIdLin1ELin1ELi0ELin1ELin1EEELi1ELin1ELb0EEEEES7_NS0_14swap_assign_opIdEELi1EE4sizeEv, symObjAddr: 0x4D90, symBinAddr: 0x100008C6C, symSize: 0x20 }
  - { offsetInCU: 0x3A082, offset: 0x3A082, size: 0x8, addend: 0x0, symName: __ZN5Eigen8internal21dense_assignment_loopINS0_31generic_dense_assignment_kernelINS0_9evaluatorINS_5BlockINS_6MatrixIdLin1ELin1ELi0ELin1ELin1EEELi1ELin1ELb0EEEEES8_NS0_14swap_assign_opIdEELi0EEELi1ELi0EE3runERSB_, symObjAddr: 0x4DB0, symBinAddr: 0x100008C8C, symSize: 0x58 }
  - { offsetInCU: 0x3A1C3, offset: 0x3A1C3, size: 0x8, addend: 0x0, symName: __ZN5Eigen8internal31generic_dense_assignment_kernelINS0_9evaluatorINS_5BlockINS_6MatrixIdLin1ELin1ELi0ELin1ELin1EEELi1ELin1ELb0EEEEES7_NS0_14swap_assign_opIdEELi0EEC1ERS7_RKS7_RKS9_RS6_, symObjAddr: 0x4D50, symBinAddr: 0x100008C2C, symSize: 0x40 }
  - { offsetInCU: 0x3A1CB, offset: 0x3A1CB, size: 0x8, addend: 0x0, symName: __ZNK5Eigen8internal31generic_dense_assignment_kernelINS0_9evaluatorINS_5BlockINS_6MatrixIdLin1ELin1ELi0ELin1ELin1EEELi1ELin1ELb0EEEEES7_NS0_14swap_assign_opIdEELi1EE4sizeEv, symObjAddr: 0x4D90, symBinAddr: 0x100008C6C, symSize: 0x20 }
  - { offsetInCU: 0x3A2AC, offset: 0x3A2AC, size: 0x8, addend: 0x0, symName: __ZN5Eigen8internal17resize_if_allowedINS_5BlockINS_6MatrixIdLin1ELin1ELi0ELin1ELin1EEELi1ELin1ELb0EEES5_NS0_14swap_assign_opIdEEEEvRT_RKT0_RKT1_, symObjAddr: 0x4C98, symBinAddr: 0x100008B74, symSize: 0xB8 }
  - { offsetInCU: 0x3A2B4, offset: 0x3A2B4, size: 0x8, addend: 0x0, symName: __ZN5Eigen8internal31generic_dense_assignment_kernelINS0_9evaluatorINS_5BlockINS_6MatrixIdLin1ELin1ELi0ELin1ELin1EEELi1ELin1ELb0EEEEES7_NS0_14swap_assign_opIdEELi0EEC1ERS7_RKS7_RKS9_RS6_, symObjAddr: 0x4D50, symBinAddr: 0x100008C2C, symSize: 0x40 }
  - { offsetInCU: 0x3A292, offset: 0x3A292, size: 0x8, addend: 0x0, symName: __ZN5Eigen8internal9evaluatorINS_5BlockINS_6MatrixIdLin1ELin1ELi0ELin1ELin1EEELi1ELin1ELb0EEEEC1ERKS5_, symObjAddr: 0x4C70, symBinAddr: 0x100008B4C, symSize: 0x28 }
  - { offsetInCU: 0x3A29A, offset: 0x3A29A, size: 0x8, addend: 0x0, symName: __ZN5Eigen8internal17resize_if_allowedINS_5BlockINS_6MatrixIdLin1ELin1ELi0ELin1ELin1EEELi1ELin1ELb0EEES5_NS0_14swap_assign_opIdEEEEvRT_RKT0_RKT1_, symObjAddr: 0x4C98, symBinAddr: 0x100008B74, symSize: 0xB8 }
  - { offsetInCU: 0x3A2CD, offset: 0x3A2CD, size: 0x8, addend: 0x0, symName: __ZN5Eigen8internal9evaluatorINS_5BlockINS_6MatrixIdLin1ELin1ELi0ELin1ELin1EEELi1ELin1ELb0EEEEC2ERKS5_, symObjAddr: 0x4C48, symBinAddr: 0x100008B24, symSize: 0x28 }
  - { offsetInCU: 0x3A2D5, offset: 0x3A2D5, size: 0x8, addend: 0x0, symName: __ZN5Eigen8internal9evaluatorINS_5BlockINS_6MatrixIdLin1ELin1ELi0ELin1ELin1EEELi1ELin1ELb0EEEEC1ERKS5_, symObjAddr: 0x4C70, symBinAddr: 0x100008B4C, symSize: 0x28 }
  - { offsetInCU: 0x3A2E2, offset: 0x3A2E2, size: 0x8, addend: 0x0, symName: __ZN5Eigen8internal4pmaxILi0EdEET0_RKS2_S4_, symObjAddr: 0x4C24, symBinAddr: 0x100008B00, symSize: 0x24 }
  - { offsetInCU: 0x3A2EA, offset: 0x3A2EA, size: 0x8, addend: 0x0, symName: __ZN5Eigen8internal9evaluatorINS_5BlockINS_6MatrixIdLin1ELin1ELi0ELin1ELin1EEELi1ELin1ELb0EEEEC2ERKS5_, symObjAddr: 0x4C48, symBinAddr: 0x100008B24, symSize: 0x28 }
  - { offsetInCU: 0x3A381, offset: 0x3A381, size: 0x8, addend: 0x0, symName: __ZZN5Eigen8internal4pmaxILi0EdEET0_RKS2_S4_ENKUlRKdS6_E_clES6_S6_, symObjAddr: 0x4BFC, symBinAddr: 0x100008AD8, symSize: 0x28 }
  - { offsetInCU: 0x3A389, offset: 0x3A389, size: 0x8, addend: 0x0, symName: __ZN5Eigen8internal4pmaxILi0EdEET0_RKS2_S4_, symObjAddr: 0x4C24, symBinAddr: 0x100008B00, symSize: 0x24 }
  - { offsetInCU: 0x3A3AF, offset: 0x3A3AF, size: 0x8, addend: 0x0, symName: __ZNK5Eigen8internal13scalar_abs_opIdEclERKd, symObjAddr: 0x4BCC, symBinAddr: 0x100008AA8, symSize: 0x30 }
  - { offsetInCU: 0x3A3B7, offset: 0x3A3B7, size: 0x8, addend: 0x0, symName: __ZZN5Eigen8internal4pmaxILi0EdEET0_RKS2_S4_ENKUlRKdS6_E_clES6_S6_, symObjAddr: 0x4BFC, symBinAddr: 0x100008AD8, symSize: 0x28 }
  - { offsetInCU: 0x3A418, offset: 0x3A418, size: 0x8, addend: 0x0, symName: __ZNK5Eigen8internal17mapbase_evaluatorINS_5BlockINS_6MatrixIdLin1ELin1ELi0ELin1ELin1EEELi1ELin1ELb0EEENS3_IdLi1ELin1ELi1ELi1ELin1EEEE5coeffEl, symObjAddr: 0x4B84, symBinAddr: 0x100008A60, symSize: 0x48 }
  - { offsetInCU: 0x3A420, offset: 0x3A420, size: 0x8, addend: 0x0, symName: __ZNK5Eigen8internal13scalar_abs_opIdEclERKd, symObjAddr: 0x4BCC, symBinAddr: 0x100008AA8, symSize: 0x30 }
  - { offsetInCU: 0x3A45C, offset: 0x3A45C, size: 0x8, addend: 0x0, symName: __ZNK5Eigen8internal15unary_evaluatorINS_12CwiseUnaryOpINS0_13scalar_abs_opIdEEKNS_5BlockINS_6MatrixIdLin1ELin1ELi0ELin1ELin1EEELi1ELin1ELb0EEEEENS0_10IndexBasedEdE4Data4funcEv, symObjAddr: 0x4B70, symBinAddr: 0x100008A4C, symSize: 0x14 }
  - { offsetInCU: 0x3A464, offset: 0x3A464, size: 0x8, addend: 0x0, symName: __ZNK5Eigen8internal17mapbase_evaluatorINS_5BlockINS_6MatrixIdLin1ELin1ELi0ELin1ELin1EEELi1ELin1ELb0EEENS3_IdLi1ELin1ELi1ELi1ELin1EEEE5coeffEl, symObjAddr: 0x4B84, symBinAddr: 0x100008A60, symSize: 0x48 }
  - { offsetInCU: 0x3A563, offset: 0x3A563, size: 0x8, addend: 0x0, symName: __ZN5Eigen8internal15unary_evaluatorINS_12CwiseUnaryOpINS0_13scalar_abs_opIdEEKNS_5BlockINS_6MatrixIdLin1ELin1ELi0ELin1ELin1EEELi1ELin1ELb0EEEEENS0_10IndexBasedEdEC2ERKSA_, symObjAddr: 0x4B24, symBinAddr: 0x100008A00, symSize: 0x4C }
  - { offsetInCU: 0x3A56B, offset: 0x3A56B, size: 0x8, addend: 0x0, symName: __ZNK5Eigen8internal15unary_evaluatorINS_12CwiseUnaryOpINS0_13scalar_abs_opIdEEKNS_5BlockINS_6MatrixIdLin1ELin1ELi0ELin1ELin1EEELi1ELin1ELb0EEEEENS0_10IndexBasedEdE4Data4funcEv, symObjAddr: 0x4B70, symBinAddr: 0x100008A4C, symSize: 0x14 }
  - { offsetInCU: 0x3A5AE, offset: 0x3A5AE, size: 0x8, addend: 0x0, symName: __ZN5Eigen7MapBaseINS_5BlockINS_6MatrixIdLin1ELin1ELi0ELin1ELin1EEELi1ELin1ELb0EEELi0EEC2EPdll, symObjAddr: 0x49F0, symBinAddr: 0x1000088CC, symSize: 0x134 }
  - { offsetInCU: 0x3A5B6, offset: 0x3A5B6, size: 0x8, addend: 0x0, symName: __ZN5Eigen8internal15unary_evaluatorINS_12CwiseUnaryOpINS0_13scalar_abs_opIdEEKNS_5BlockINS_6MatrixIdLin1ELin1ELi0ELin1ELin1EEELi1ELin1ELb0EEEEENS0_10IndexBasedEdEC2ERKSA_, symObjAddr: 0x4B24, symBinAddr: 0x100008A00, symSize: 0x4C }
  - { offsetInCU: 0x3A62D, offset: 0x3A62D, size: 0x8, addend: 0x0, symName: __ZN5Eigen10MatrixBaseINS_5BlockINS_6MatrixIdLin1ELin1ELi0ELin1ELin1EEELi1ELin1ELb0EEEEC2Ev, symObjAddr: 0x49D0, symBinAddr: 0x1000088AC, symSize: 0x20 }
  - { offsetInCU: 0x3A635, offset: 0x3A635, size: 0x8, addend: 0x0, symName: __ZN5Eigen7MapBaseINS_5BlockINS_6MatrixIdLin1ELin1ELi0ELin1ELin1EEELi1ELin1ELb0EEELi0EEC2EPdll, symObjAddr: 0x49F0, symBinAddr: 0x1000088CC, symSize: 0x134 }
  - { offsetInCU: 0x3A601, offset: 0x3A601, size: 0x8, addend: 0x0, symName: __ZNK5Eigen9DenseBaseINS_6MatrixIdLin1ELin1ELi0ELin1ELin1EEEE9innerSizeEv, symObjAddr: 0x49B4, symBinAddr: 0x100008890, symSize: 0x1C }
  - { offsetInCU: 0x3A609, offset: 0x3A609, size: 0x8, addend: 0x0, symName: __ZN5Eigen10MatrixBaseINS_5BlockINS_6MatrixIdLin1ELin1ELi0ELin1ELin1EEELi1ELin1ELb0EEEEC2Ev, symObjAddr: 0x49D0, symBinAddr: 0x1000088AC, symSize: 0x20 }
  - { offsetInCU: 0x3A758, offset: 0x3A758, size: 0x8, addend: 0x0, symName: __ZN5Eigen8internal24call_assignment_no_aliasINS_6MatrixIdLi4ELi4ELi0ELi4ELi4EEENS_3MapIS3_Li0ENS_6StrideILi0ELi0EEEEENS0_9assign_opIddEEEEvRT_RKT0_RKT1_, symObjAddr: 0x497C, symBinAddr: 0x100008858, symSize: 0x38 }
  - { offsetInCU: 0x3A760, offset: 0x3A760, size: 0x8, addend: 0x0, symName: __ZNK5Eigen9DenseBaseINS_6MatrixIdLin1ELin1ELi0ELin1ELin1EEEE9innerSizeEv, symObjAddr: 0x49B4, symBinAddr: 0x100008890, symSize: 0x1C }
  - { offsetInCU: 0x3A6FB, offset: 0x3A6FB, size: 0x8, addend: 0x0, symName: __ZN5Eigen9EigenBaseINS_6MatrixIdLi4ELi4ELi0ELi4ELi4EEEE7derivedEv, symObjAddr: 0x4968, symBinAddr: 0x100008844, symSize: 0x14 }
  - { offsetInCU: 0x3A703, offset: 0x3A703, size: 0x8, addend: 0x0, symName: __ZN5Eigen8internal24call_assignment_no_aliasINS_6MatrixIdLi4ELi4ELi0ELi4ELi4EEENS_3MapIS3_Li0ENS_6StrideILi0ELi0EEEEENS0_9assign_opIddEEEEvRT_RKT0_RKT1_, symObjAddr: 0x497C, symBinAddr: 0x100008858, symSize: 0x38 }
  - { offsetInCU: 0x3A78A, offset: 0x3A78A, size: 0x8, addend: 0x0, symName: __ZN5Eigen8internal11plain_arrayIdLi16ELi0ELi16EEC1Ev, symObjAddr: 0x48C0, symBinAddr: 0x10000879C, symSize: 0xA8 }
  - { offsetInCU: 0x3A792, offset: 0x3A792, size: 0x8, addend: 0x0, symName: __ZN5Eigen9EigenBaseINS_6MatrixIdLi4ELi4ELi0ELi4ELi4EEEE7derivedEv, symObjAddr: 0x4968, symBinAddr: 0x100008844, symSize: 0x14 }
  - { offsetInCU: 0x3A798, offset: 0x3A798, size: 0x8, addend: 0x0, symName: __ZN5Eigen8internal15BlockImpl_denseINS_6MatrixIdLin1ELin1ELi0ELin1ELin1EEELin1ELi1ELb1ELb1EE4initEv, symObjAddr: 0x4890, symBinAddr: 0x10000876C, symSize: 0x30 }
  - { offsetInCU: 0x3A7A0, offset: 0x3A7A0, size: 0x8, addend: 0x0, symName: __ZN5Eigen8internal11plain_arrayIdLi16ELi0ELi16EEC1Ev, symObjAddr: 0x48C0, symBinAddr: 0x10000879C, symSize: 0xA8 }
  - { offsetInCU: 0x3A874, offset: 0x3A874, size: 0x8, addend: 0x0, symName: __ZN5Eigen7MapBaseINS_5BlockINS_6MatrixIdLin1ELin1ELi0ELin1ELin1EEELin1ELi1ELb1EEELi1EEC2EPdll, symObjAddr: 0x4858, symBinAddr: 0x100008734, symSize: 0x38 }
  - { offsetInCU: 0x3A87C, offset: 0x3A87C, size: 0x8, addend: 0x0, symName: __ZN5Eigen8internal15BlockImpl_denseINS_6MatrixIdLin1ELin1ELi0ELin1ELin1EEELin1ELi1ELb1ELb1EE4initEv, symObjAddr: 0x4890, symBinAddr: 0x10000876C, symSize: 0x30 }
  - { offsetInCU: 0x3A9FA, offset: 0x3A9FA, size: 0x8, addend: 0x0, symName: __ZN5Eigen8internal26call_dense_assignment_loopINS_5BlockINS_6MatrixIdLin1ELin1ELi0ELin1ELin1EEELi1ELin1ELb0EEES5_NS0_14swap_assign_opIdEEEEvRT_RKT0_RKT1_, symObjAddr: 0x47A8, symBinAddr: 0x100008684, symSize: 0xB0 }
  - { offsetInCU: 0x3AA02, offset: 0x3AA02, size: 0x8, addend: 0x0, symName: __ZN5Eigen7MapBaseINS_5BlockINS_6MatrixIdLin1ELin1ELi0ELin1ELin1EEELin1ELi1ELb1EEELi1EEC2EPdll, symObjAddr: 0x4858, symBinAddr: 0x100008734, symSize: 0x38 }
  - { offsetInCU: 0x3AA9F, offset: 0x3AA9F, size: 0x8, addend: 0x0, symName: __ZN5Eigen8internal18check_for_aliasingINS_5BlockINS_6MatrixIdLin1ELin1ELi0ELin1ELin1EEELi1ELin1ELb0EEES5_EEvRKT_RKT0_, symObjAddr: 0x4790, symBinAddr: 0x10000866C, symSize: 0x18 }
  - { offsetInCU: 0x3AAA7, offset: 0x3AAA7, size: 0x8, addend: 0x0, symName: __ZN5Eigen8internal26call_dense_assignment_loopINS_5BlockINS_6MatrixIdLin1ELin1ELi0ELin1ELin1EEELi1ELin1ELb0EEES5_NS0_14swap_assign_opIdEEEEvRT_RKT0_RKT1_, symObjAddr: 0x47A8, symBinAddr: 0x100008684, symSize: 0xB0 }
  - { offsetInCU: 0x3AA83, offset: 0x3AA83, size: 0x8, addend: 0x0, symName: __ZN5Eigen8internal30plainobjectbase_evaluator_dataIdLin1EEC1EPKdl, symObjAddr: 0x475C, symBinAddr: 0x100008638, symSize: 0x34 }
  - { offsetInCU: 0x3AA8B, offset: 0x3AA8B, size: 0x8, addend: 0x0, symName: __ZN5Eigen8internal18check_for_aliasingINS_5BlockINS_6MatrixIdLin1ELin1ELi0ELin1ELin1EEELi1ELin1ELb0EEES5_EEvRKT_RKT0_, symObjAddr: 0x4790, symBinAddr: 0x10000866C, symSize: 0x18 }
  - { offsetInCU: 0x3AAF2, offset: 0x3AAF2, size: 0x8, addend: 0x0, symName: __ZN5Eigen8internal14evaluator_baseINS_6MatrixIdLin1ELin1ELi0ELin1ELin1EEEEC2Ev, symObjAddr: 0x4748, symBinAddr: 0x100008624, symSize: 0x14 }
  - { offsetInCU: 0x3AAFA, offset: 0x3AAFA, size: 0x8, addend: 0x0, symName: __ZN5Eigen8internal30plainobjectbase_evaluator_dataIdLin1EEC1EPKdl, symObjAddr: 0x475C, symBinAddr: 0x100008638, symSize: 0x34 }
  - { offsetInCU: 0x3AAD2, offset: 0x3AAD2, size: 0x8, addend: 0x0, symName: __ZNK5Eigen15DenseCoeffsBaseINS_6MatrixIdLin1ELin1ELi0ELin1ELin1EEELi3EE11outerStrideEv, symObjAddr: 0x4728, symBinAddr: 0x100008604, symSize: 0x20 }
  - { offsetInCU: 0x3AADA, offset: 0x3AADA, size: 0x8, addend: 0x0, symName: __ZN5Eigen8internal14evaluator_baseINS_6MatrixIdLin1ELin1ELi0ELin1ELin1EEEEC2Ev, symObjAddr: 0x4748, symBinAddr: 0x100008624, symSize: 0x14 }
  - { offsetInCU: 0x3AB02, offset: 0x3AB02, size: 0x8, addend: 0x0, symName: __ZNK5Eigen15PlainObjectBaseINS_6MatrixIdLin1ELin1ELi0ELin1ELin1EEEE4dataEv, symObjAddr: 0x470C, symBinAddr: 0x1000085E8, symSize: 0x1C }
  - { offsetInCU: 0x3AB0A, offset: 0x3AB0A, size: 0x8, addend: 0x0, symName: __ZNK5Eigen15DenseCoeffsBaseINS_6MatrixIdLin1ELin1ELi0ELin1ELin1EEELi3EE11outerStrideEv, symObjAddr: 0x4728, symBinAddr: 0x100008604, symSize: 0x20 }
  - { offsetInCU: 0x3AB32, offset: 0x3AB32, size: 0x8, addend: 0x0, symName: __ZNK5Eigen8internal13scalar_max_opIddLi0EEclERKdS4_, symObjAddr: 0x46E4, symBinAddr: 0x1000085C0, symSize: 0x28 }
  - { offsetInCU: 0x3AB3A, offset: 0x3AB3A, size: 0x8, addend: 0x0, symName: __ZNK5Eigen15PlainObjectBaseINS_6MatrixIdLin1ELin1ELi0ELin1ELin1EEEE4dataEv, symObjAddr: 0x470C, symBinAddr: 0x1000085E8, symSize: 0x1C }
  - { offsetInCU: 0x3AB88, offset: 0x3AB88, size: 0x8, addend: 0x0, symName: __ZNK5Eigen8internal15unary_evaluatorINS_12CwiseUnaryOpINS0_13scalar_abs_opIdEEKNS_5BlockINS_6MatrixIdLin1ELin1ELi0ELin1ELin1EEELi1ELin1ELb0EEEEENS0_10IndexBasedEdE5coeffEl, symObjAddr: 0x469C, symBinAddr: 0x100008578, symSize: 0x48 }
  - { offsetInCU: 0x3AB90, offset: 0x3AB90, size: 0x8, addend: 0x0, symName: __ZNK5Eigen8internal13scalar_max_opIddLi0EEclERKdS4_, symObjAddr: 0x46E4, symBinAddr: 0x1000085C0, symSize: 0x28 }
  - { offsetInCU: 0x3ABCC, offset: 0x3ABCC, size: 0x8, addend: 0x0, symName: __ZNK5Eigen9EigenBaseINS_12CwiseUnaryOpINS_8internal13scalar_abs_opIdEEKNS_5BlockINS_6MatrixIdLin1ELin1ELi0ELin1ELin1EEELi1ELin1ELb0EEEEEE4sizeEv, symObjAddr: 0x4668, symBinAddr: 0x100008544, symSize: 0x34 }
  - { offsetInCU: 0x3ABD4, offset: 0x3ABD4, size: 0x8, addend: 0x0, symName: __ZNK5Eigen8internal15unary_evaluatorINS_12CwiseUnaryOpINS0_13scalar_abs_opIdEEKNS_5BlockINS_6MatrixIdLin1ELin1ELi0ELin1ELin1EEELi1ELin1ELb0EEEEENS0_10IndexBasedEdE5coeffEl, symObjAddr: 0x469C, symBinAddr: 0x100008578, symSize: 0x48 }
  - { offsetInCU: 0x3ACBA, offset: 0x3ACBA, size: 0x8, addend: 0x0, symName: __ZN5Eigen8internal9evaluatorINS_12CwiseUnaryOpINS0_13scalar_abs_opIdEEKNS_5BlockINS_6MatrixIdLin1ELin1ELi0ELin1ELin1EEELi1ELin1ELb0EEEEEEC2ERKSA_, symObjAddr: 0x4640, symBinAddr: 0x10000851C, symSize: 0x28 }
  - { offsetInCU: 0x3ACC2, offset: 0x3ACC2, size: 0x8, addend: 0x0, symName: __ZNK5Eigen9EigenBaseINS_12CwiseUnaryOpINS_8internal13scalar_abs_opIdEEKNS_5BlockINS_6MatrixIdLin1ELin1ELi0ELin1ELin1EEELi1ELin1ELb0EEEEEE4sizeEv, symObjAddr: 0x4668, symBinAddr: 0x100008544, symSize: 0x34 }
  - { offsetInCU: 0x3AC63, offset: 0x3AC63, size: 0x8, addend: 0x0, symName: __ZNK5Eigen12CwiseUnaryOpINS_8internal13scalar_abs_opIdEEKNS_5BlockINS_6MatrixIdLin1ELin1ELi0ELin1ELin1EEELi1ELin1ELb0EEEE4colsEv, symObjAddr: 0x4624, symBinAddr: 0x100008500, symSize: 0x1C }
  - { offsetInCU: 0x3AC6B, offset: 0x3AC6B, size: 0x8, addend: 0x0, symName: __ZN5Eigen8internal9evaluatorINS_12CwiseUnaryOpINS0_13scalar_abs_opIdEEKNS_5BlockINS_6MatrixIdLin1ELin1ELi0ELin1ELin1EEELi1ELin1ELb0EEEEEEC2ERKSA_, symObjAddr: 0x4640, symBinAddr: 0x10000851C, symSize: 0x28 }
  - { offsetInCU: 0x3AC93, offset: 0x3AC93, size: 0x8, addend: 0x0, symName: __ZNK5Eigen12CwiseUnaryOpINS_8internal13scalar_abs_opIdEEKNS_5BlockINS_6MatrixIdLin1ELin1ELi0ELin1ELin1EEELi1ELin1ELb0EEEE4rowsEv, symObjAddr: 0x4608, symBinAddr: 0x1000084E4, symSize: 0x1C }
  - { offsetInCU: 0x3AC9B, offset: 0x3AC9B, size: 0x8, addend: 0x0, symName: __ZNK5Eigen12CwiseUnaryOpINS_8internal13scalar_abs_opIdEEKNS_5BlockINS_6MatrixIdLin1ELin1ELi0ELin1ELin1EEELi1ELin1ELb0EEEE4colsEv, symObjAddr: 0x4624, symBinAddr: 0x100008500, symSize: 0x1C }
  - { offsetInCU: 0x3ACC3, offset: 0x3ACC3, size: 0x8, addend: 0x0, symName: __ZN5Eigen8internal15BlockImpl_denseINS_6MatrixIdLin1ELin1ELi0ELin1ELin1EEELi1ELin1ELb0ELb1EE4initEv, symObjAddr: 0x45D8, symBinAddr: 0x1000084B4, symSize: 0x30 }
  - { offsetInCU: 0x3ACCB, offset: 0x3ACCB, size: 0x8, addend: 0x0, symName: __ZNK5Eigen12CwiseUnaryOpINS_8internal13scalar_abs_opIdEEKNS_5BlockINS_6MatrixIdLin1ELin1ELi0ELin1ELin1EEELi1ELin1ELb0EEEE4rowsEv, symObjAddr: 0x4608, symBinAddr: 0x1000084E4, symSize: 0x1C }
  - { offsetInCU: 0x3AD53, offset: 0x3AD53, size: 0x8, addend: 0x0, symName: __ZN5Eigen8internal19variable_if_dynamicIlLin1EEC1El, symObjAddr: 0x45B4, symBinAddr: 0x100008490, symSize: 0x24 }
  - { offsetInCU: 0x3AD5B, offset: 0x3AD5B, size: 0x8, addend: 0x0, symName: __ZN5Eigen8internal15BlockImpl_denseINS_6MatrixIdLin1ELin1ELi0ELin1ELin1EEELi1ELin1ELb0ELb1EE4initEv, symObjAddr: 0x45D8, symBinAddr: 0x1000084B4, symSize: 0x30 }
  - { offsetInCU: 0x3AE06, offset: 0x3AE06, size: 0x8, addend: 0x0, symName: __ZN5Eigen7MapBaseINS_5BlockINS_6MatrixIdLin1ELin1ELi0ELin1ELin1EEELi1ELin1ELb0EEELi1EEC2EPdll, symObjAddr: 0x457C, symBinAddr: 0x100008458, symSize: 0x38 }
  - { offsetInCU: 0x3AE0E, offset: 0x3AE0E, size: 0x8, addend: 0x0, symName: __ZN5Eigen8internal19variable_if_dynamicIlLin1EEC1El, symObjAddr: 0x45B4, symBinAddr: 0x100008490, symSize: 0x24 }
  - { offsetInCU: 0x3AE36, offset: 0x3AE36, size: 0x8, addend: 0x0, symName: __ZNK5Eigen6MatrixIdLin1ELin1ELi0ELin1ELin1EE11outerStrideEv, symObjAddr: 0x4560, symBinAddr: 0x10000843C, symSize: 0x1C }
  - { offsetInCU: 0x3AE3E, offset: 0x3AE3E, size: 0x8, addend: 0x0, symName: __ZN5Eigen7MapBaseINS_5BlockINS_6MatrixIdLin1ELin1ELi0ELin1ELin1EEELi1ELin1ELb0EEELi1EEC2EPdll, symObjAddr: 0x457C, symBinAddr: 0x100008458, symSize: 0x38 }
  - { offsetInCU: 0x3AE66, offset: 0x3AE66, size: 0x8, addend: 0x0, symName: __ZNK5Eigen6MatrixIdLin1ELin1ELi0ELin1ELin1EE11innerStrideEv, symObjAddr: 0x454C, symBinAddr: 0x100008428, symSize: 0x14 }
  - { offsetInCU: 0x3AE6E, offset: 0x3AE6E, size: 0x8, addend: 0x0, symName: __ZNK5Eigen6MatrixIdLin1ELin1ELi0ELin1ELin1EE11outerStrideEv, symObjAddr: 0x4560, symBinAddr: 0x10000843C, symSize: 0x1C }
  - { offsetInCU: 0x3AE96, offset: 0x3AE96, size: 0x8, addend: 0x0, symName: __ZN5Eigen15PlainObjectBaseINS_6MatrixIdLin1ELin1ELi0ELin1ELin1EEEE4dataEv, symObjAddr: 0x4530, symBinAddr: 0x10000840C, symSize: 0x1C }
  - { offsetInCU: 0x3AE9E, offset: 0x3AE9E, size: 0x8, addend: 0x0, symName: __ZNK5Eigen6MatrixIdLin1ELin1ELi0ELin1ELin1EE11innerStrideEv, symObjAddr: 0x454C, symBinAddr: 0x100008428, symSize: 0x14 }
  - { offsetInCU: 0x3AF25, offset: 0x3AF25, size: 0x8, addend: 0x0, symName: __ZN5Eigen8internal26conditional_aligned_mallocILb1EEEPvm, symObjAddr: 0x4514, symBinAddr: 0x1000083F0, symSize: 0x1C }
  - { offsetInCU: 0x3AF2D, offset: 0x3AF2D, size: 0x8, addend: 0x0, symName: __ZN5Eigen15PlainObjectBaseINS_6MatrixIdLin1ELin1ELi0ELin1ELin1EEEE4dataEv, symObjAddr: 0x4530, symBinAddr: 0x10000840C, symSize: 0x1C }
  - { offsetInCU: 0x3AF42, offset: 0x3AF42, size: 0x8, addend: 0x0, symName: __ZNK5Eigen9EigenBaseINS_6MatrixIdLi4ELi4ELi0ELi4ELi4EEEE7derivedEv, symObjAddr: 0x4500, symBinAddr: 0x1000083DC, symSize: 0x14 }
  - { offsetInCU: 0x3AF4A, offset: 0x3AF4A, size: 0x8, addend: 0x0, symName: __ZN5Eigen8internal26conditional_aligned_mallocILb1EEEPvm, symObjAddr: 0x4514, symBinAddr: 0x1000083F0, symSize: 0x1C }
  - { offsetInCU: 0x3AF72, offset: 0x3AF72, size: 0x8, addend: 0x0, symName: __ZN5Eigen15PlainObjectBaseINS_6MatrixIdLi4ELi4ELi0ELi4ELi4EEEE12_set_noaliasINS_3MapIS2_Li0ENS_6StrideILi0ELi0EEEEEEERS2_RKNS_9DenseBaseIT_EE, symObjAddr: 0x44B0, symBinAddr: 0x10000838C, symSize: 0x50 }
  - { offsetInCU: 0x3AF7A, offset: 0x3AF7A, size: 0x8, addend: 0x0, symName: __ZNK5Eigen9EigenBaseINS_6MatrixIdLi4ELi4ELi0ELi4ELi4EEEE7derivedEv, symObjAddr: 0x4500, symBinAddr: 0x1000083DC, symSize: 0x14 }
  - { offsetInCU: 0x3B00E, offset: 0x3B00E, size: 0x8, addend: 0x0, symName: __ZN5Eigen12DenseStorageIdLi16ELi4ELi4ELi0EEC1Ev, symObjAddr: 0x4490, symBinAddr: 0x10000836C, symSize: 0x20 }
  - { offsetInCU: 0x3B016, offset: 0x3B016, size: 0x8, addend: 0x0, symName: __ZN5Eigen15PlainObjectBaseINS_6MatrixIdLi4ELi4ELi0ELi4ELi4EEEE12_set_noaliasINS_3MapIS2_Li0ENS_6StrideILi0ELi0EEEEEEERS2_RKNS_9DenseBaseIT_EE, symObjAddr: 0x44B0, symBinAddr: 0x10000838C, symSize: 0x50 }
  - { offsetInCU: 0x3B064, offset: 0x3B064, size: 0x8, addend: 0x0, symName: __ZN5Eigen9DenseBaseINS_6MatrixIdLi4ELi4ELi0ELi4ELi4EEEEC2Ev, symObjAddr: 0x447C, symBinAddr: 0x100008358, symSize: 0x14 }
  - { offsetInCU: 0x3B06C, offset: 0x3B06C, size: 0x8, addend: 0x0, symName: __ZN5Eigen12DenseStorageIdLi16ELi4ELi4ELi0EEC1Ev, symObjAddr: 0x4490, symBinAddr: 0x10000836C, symSize: 0x20 }
  - { offsetInCU: 0x3B058, offset: 0x3B058, size: 0x8, addend: 0x0, symName: __ZN5Eigen8internal25default_max_digits10_implIdLb1ELb0EE3runEv, symObjAddr: 0x4474, symBinAddr: 0x100008350, symSize: 0x8 }
  - { offsetInCU: 0x3B060, offset: 0x3B060, size: 0x8, addend: 0x0, symName: __ZN5Eigen9DenseBaseINS_6MatrixIdLi4ELi4ELi0ELi4ELi4EEEEC2Ev, symObjAddr: 0x447C, symBinAddr: 0x100008358, symSize: 0x14 }
  - { offsetInCU: 0x3B116, offset: 0x3B116, size: 0x8, addend: 0x0, symName: __ZN5Eigen8internal15BlockImpl_denseINS_6MatrixIdLin1ELin1ELi0ELin1ELin1EEELin1ELi1ELb1ELb1EEC2ERS3_l, symObjAddr: 0x43A8, symBinAddr: 0x100008284, symSize: 0xCC }
  - { offsetInCU: 0x3B11E, offset: 0x3B11E, size: 0x8, addend: 0x0, symName: __ZN5Eigen8internal25default_max_digits10_implIdLb1ELb0EE3runEv, symObjAddr: 0x4474, symBinAddr: 0x100008350, symSize: 0x8 }
  - { offsetInCU: 0x3B12A, offset: 0x3B12A, size: 0x8, addend: 0x0, symName: __ZN5Eigen8internal10AssignmentINS_5BlockINS_6MatrixIdLin1ELin1ELi0ELin1ELin1EEELi1ELin1ELb0EEES5_NS0_14swap_assign_opIdEENS0_11Dense2DenseEvE3runERS5_RKS5_RKS7_, symObjAddr: 0x436C, symBinAddr: 0x100008248, symSize: 0x3C }
  - { offsetInCU: 0x3B132, offset: 0x3B132, size: 0x8, addend: 0x0, symName: __ZN5Eigen8internal15BlockImpl_denseINS_6MatrixIdLin1ELin1ELi0ELin1ELin1EEELin1ELi1ELb1ELb1EEC2ERS3_l, symObjAddr: 0x43A8, symBinAddr: 0x100008284, symSize: 0xCC }
  - { offsetInCU: 0x3B184, offset: 0x3B184, size: 0x8, addend: 0x0, symName: __ZNK5Eigen8internal19variable_if_dynamicIlLin1EE5valueEv, symObjAddr: 0x4354, symBinAddr: 0x100008230, symSize: 0x18 }
  - { offsetInCU: 0x3B18C, offset: 0x3B18C, size: 0x8, addend: 0x0, symName: __ZN5Eigen8internal10AssignmentINS_5BlockINS_6MatrixIdLin1ELin1ELi0ELin1ELin1EEELi1ELin1ELb0EEES5_NS0_14swap_assign_opIdEENS0_11Dense2DenseEvE3runERS5_RKS5_RKS7_, symObjAddr: 0x436C, symBinAddr: 0x100008248, symSize: 0x3C }
  - { offsetInCU: 0x3B1B5, offset: 0x3B1B5, size: 0x8, addend: 0x0, symName: __ZN5Eigen8internal19variable_if_dynamicIlLi1EE5valueEv, symObjAddr: 0x434C, symBinAddr: 0x100008228, symSize: 0x8 }
  - { offsetInCU: 0x3B1BD, offset: 0x3B1BD, size: 0x8, addend: 0x0, symName: __ZNK5Eigen8internal19variable_if_dynamicIlLin1EE5valueEv, symObjAddr: 0x4354, symBinAddr: 0x100008230, symSize: 0x18 }
  - { offsetInCU: 0x3B1D1, offset: 0x3B1D1, size: 0x8, addend: 0x0, symName: __ZNK5Eigen8internal30plainobjectbase_evaluator_dataIdLin1EE11outerStrideEv, symObjAddr: 0x4334, symBinAddr: 0x100008210, symSize: 0x18 }
  - { offsetInCU: 0x3B1D9, offset: 0x3B1D9, size: 0x8, addend: 0x0, symName: __ZN5Eigen8internal19variable_if_dynamicIlLi1EE5valueEv, symObjAddr: 0x434C, symBinAddr: 0x100008228, symSize: 0x8 }
  - { offsetInCU: 0x3B291, offset: 0x3B291, size: 0x8, addend: 0x0, symName: __ZN5Eigen8internal9evaluatorINS_15PlainObjectBaseINS_6MatrixIdLin1ELin1ELi0ELin1ELin1EEEEEEC2ERKS5_, symObjAddr: 0x42E0, symBinAddr: 0x1000081BC, symSize: 0x54 }
  - { offsetInCU: 0x3B299, offset: 0x3B299, size: 0x8, addend: 0x0, symName: __ZNK5Eigen8internal30plainobjectbase_evaluator_dataIdLin1EE11outerStrideEv, symObjAddr: 0x4334, symBinAddr: 0x100008210, symSize: 0x18 }
  - { offsetInCU: 0x3B27C, offset: 0x3B27C, size: 0x8, addend: 0x0, symName: __ZN5Eigen8internal10redux_implINS0_13scalar_max_opIddLi0EEENS0_15redux_evaluatorINS_12CwiseUnaryOpINS0_13scalar_abs_opIdEEKNS_5BlockINS_6MatrixIdLin1ELin1ELi0ELin1ELin1EEELi1ELin1ELb0EEEEEEELi1ELi0EE3runISD_EEdRKSE_RKS3_RKT_, symObjAddr: 0x41EC, symBinAddr: 0x1000080C8, symSize: 0xF4 }
  - { offsetInCU: 0x3B284, offset: 0x3B284, size: 0x8, addend: 0x0, symName: __ZN5Eigen8internal9evaluatorINS_15PlainObjectBaseINS_6MatrixIdLin1ELin1ELi0ELin1ELin1EEEEEEC2ERKS5_, symObjAddr: 0x42E0, symBinAddr: 0x1000081BC, symSize: 0x54 }
  - { offsetInCU: 0x3B3E0, offset: 0x3B3E0, size: 0x8, addend: 0x0, symName: __ZN5Eigen8internal14evaluator_baseINS_5BlockINS_6MatrixIdLin1ELin1ELi0ELin1ELin1EEELi1ELin1ELb0EEEED2Ev, symObjAddr: 0x41D8, symBinAddr: 0x1000080B4, symSize: 0x14 }
  - { offsetInCU: 0x3B3E8, offset: 0x3B3E8, size: 0x8, addend: 0x0, symName: __ZN5Eigen8internal10redux_implINS0_13scalar_max_opIddLi0EEENS0_15redux_evaluatorINS_12CwiseUnaryOpINS0_13scalar_abs_opIdEEKNS_5BlockINS_6MatrixIdLin1ELin1ELi0ELin1ELin1EEELi1ELin1ELb0EEEEEEELi1ELi0EE3runISD_EEdRKSE_RKS3_RKT_, symObjAddr: 0x41EC, symBinAddr: 0x1000080C8, symSize: 0xF4 }
  - { offsetInCU: 0x3B465, offset: 0x3B465, size: 0x8, addend: 0x0, symName: __ZN5Eigen8internal14evaluator_baseINS_12CwiseUnaryOpINS0_13scalar_abs_opIdEEKNS_5BlockINS_6MatrixIdLin1ELin1ELi0ELin1ELin1EEELi1ELin1ELb0EEEEEED2Ev, symObjAddr: 0x41C4, symBinAddr: 0x1000080A0, symSize: 0x14 }
  - { offsetInCU: 0x3B46D, offset: 0x3B46D, size: 0x8, addend: 0x0, symName: __ZN5Eigen8internal14evaluator_baseINS_5BlockINS_6MatrixIdLin1ELin1ELi0ELin1ELin1EEELi1ELin1ELb0EEEED2Ev, symObjAddr: 0x41D8, symBinAddr: 0x1000080B4, symSize: 0x14 }
  - { offsetInCU: 0x3B4C5, offset: 0x3B4C5, size: 0x8, addend: 0x0, symName: __ZN5Eigen8internal15redux_evaluatorINS_12CwiseUnaryOpINS0_13scalar_abs_opIdEEKNS_5BlockINS_6MatrixIdLin1ELin1ELi0ELin1ELin1EEELi1ELin1ELb0EEEEEEC1ERKSA_, symObjAddr: 0x419C, symBinAddr: 0x100008078, symSize: 0x28 }
  - { offsetInCU: 0x3B4CD, offset: 0x3B4CD, size: 0x8, addend: 0x0, symName: __ZN5Eigen8internal14evaluator_baseINS_12CwiseUnaryOpINS0_13scalar_abs_opIdEEKNS_5BlockINS_6MatrixIdLin1ELin1ELi0ELin1ELin1EEELi1ELin1ELb0EEEEEED2Ev, symObjAddr: 0x41C4, symBinAddr: 0x1000080A0, symSize: 0x14 }
  - { offsetInCU: 0x3B467, offset: 0x3B467, size: 0x8, addend: 0x0, symName: __ZNK5Eigen9EigenBaseINS_12CwiseUnaryOpINS_8internal13scalar_abs_opIdEEKNS_5BlockINS_6MatrixIdLin1ELin1ELi0ELin1ELin1EEELi1ELin1ELb0EEEEEE4colsEv, symObjAddr: 0x417C, symBinAddr: 0x100008058, symSize: 0x20 }
  - { offsetInCU: 0x3B46F, offset: 0x3B46F, size: 0x8, addend: 0x0, symName: __ZN5Eigen8internal15redux_evaluatorINS_12CwiseUnaryOpINS0_13scalar_abs_opIdEEKNS_5BlockINS_6MatrixIdLin1ELin1ELi0ELin1ELin1EEELi1ELin1ELb0EEEEEEC1ERKSA_, symObjAddr: 0x419C, symBinAddr: 0x100008078, symSize: 0x28 }
  - { offsetInCU: 0x3B497, offset: 0x3B497, size: 0x8, addend: 0x0, symName: __ZNK5Eigen9EigenBaseINS_12CwiseUnaryOpINS_8internal13scalar_abs_opIdEEKNS_5BlockINS_6MatrixIdLin1ELin1ELi0ELin1ELin1EEELi1ELin1ELb0EEEEEE4rowsEv, symObjAddr: 0x415C, symBinAddr: 0x100008038, symSize: 0x20 }
  - { offsetInCU: 0x3B49F, offset: 0x3B49F, size: 0x8, addend: 0x0, symName: __ZNK5Eigen9EigenBaseINS_12CwiseUnaryOpINS_8internal13scalar_abs_opIdEEKNS_5BlockINS_6MatrixIdLin1ELin1ELi0ELin1ELin1EEELi1ELin1ELb0EEEEEE4colsEv, symObjAddr: 0x417C, symBinAddr: 0x100008058, symSize: 0x20 }
  - { offsetInCU: 0x3B569, offset: 0x3B569, size: 0x8, addend: 0x0, symName: __ZN5Eigen8internal15BlockImpl_denseINS_6MatrixIdLin1ELin1ELi0ELin1ELin1EEELi1ELin1ELb0ELb1EEC2ERS3_l, symObjAddr: 0x4090, symBinAddr: 0x100007F6C, symSize: 0xCC }
  - { offsetInCU: 0x3B571, offset: 0x3B571, size: 0x8, addend: 0x0, symName: __ZNK5Eigen9EigenBaseINS_12CwiseUnaryOpINS_8internal13scalar_abs_opIdEEKNS_5BlockINS_6MatrixIdLin1ELin1ELi0ELin1ELin1EEELi1ELin1ELb0EEEEEE4rowsEv, symObjAddr: 0x415C, symBinAddr: 0x100008038, symSize: 0x20 }
  - { offsetInCU: 0x3B5EA, offset: 0x3B5EA, size: 0x8, addend: 0x0, symName: __ZN5Eigen8internal28conditional_aligned_new_autoIdLb1EEEPT_m, symObjAddr: 0x4034, symBinAddr: 0x100007F10, symSize: 0x5C }
  - { offsetInCU: 0x3B5F2, offset: 0x3B5F2, size: 0x8, addend: 0x0, symName: __ZN5Eigen8internal15BlockImpl_denseINS_6MatrixIdLin1ELin1ELi0ELin1ELin1EEELi1ELin1ELb0ELb1EEC2ERS3_l, symObjAddr: 0x4090, symBinAddr: 0x100007F6C, symSize: 0xCC }
  - { offsetInCU: 0x3B612, offset: 0x3B612, size: 0x8, addend: 0x0, symName: __ZNK5Eigen12DenseStorageIdLi16ELi4ELi4ELi0EE4dataEv, symObjAddr: 0x4020, symBinAddr: 0x100007EFC, symSize: 0x14 }
  - { offsetInCU: 0x3B61A, offset: 0x3B61A, size: 0x8, addend: 0x0, symName: __ZN5Eigen8internal28conditional_aligned_new_autoIdLb1EEEPT_m, symObjAddr: 0x4034, symBinAddr: 0x100007F10, symSize: 0x5C }
  - { offsetInCU: 0x3B643, offset: 0x3B643, size: 0x8, addend: 0x0, symName: __ZN5Eigen12DenseStorageIdLi16ELi4ELi4ELi0EE4rowsEv, symObjAddr: 0x4018, symBinAddr: 0x100007EF4, symSize: 0x8 }
  - { offsetInCU: 0x3B64B, offset: 0x3B64B, size: 0x8, addend: 0x0, symName: __ZNK5Eigen12DenseStorageIdLi16ELi4ELi4ELi0EE4dataEv, symObjAddr: 0x4020, symBinAddr: 0x100007EFC, symSize: 0x14 }
  - { offsetInCU: 0x3B660, offset: 0x3B660, size: 0x8, addend: 0x0, symName: __ZN5Eigen12DenseStorageIdLi16ELi4ELi4ELi0EE4colsEv, symObjAddr: 0x4010, symBinAddr: 0x100007EEC, symSize: 0x8 }
  - { offsetInCU: 0x3B668, offset: 0x3B668, size: 0x8, addend: 0x0, symName: __ZN5Eigen12DenseStorageIdLi16ELi4ELi4ELi0EE4rowsEv, symObjAddr: 0x4018, symBinAddr: 0x100007EF4, symSize: 0x8 }
  - { offsetInCU: 0x3B67C, offset: 0x3B67C, size: 0x8, addend: 0x0, symName: __ZNK5Eigen9EigenBaseINS_6MatrixIdLi4ELi4ELi0ELi4ELi4EEEE4colsEv, symObjAddr: 0x3FF0, symBinAddr: 0x100007ECC, symSize: 0x20 }
  - { offsetInCU: 0x3B684, offset: 0x3B684, size: 0x8, addend: 0x0, symName: __ZN5Eigen12DenseStorageIdLi16ELi4ELi4ELi0EE4colsEv, symObjAddr: 0x4010, symBinAddr: 0x100007EEC, symSize: 0x8 }
  - { offsetInCU: 0x3B6AC, offset: 0x3B6AC, size: 0x8, addend: 0x0, symName: __ZNK5Eigen9EigenBaseINS_6MatrixIdLi4ELi4ELi0ELi4ELi4EEEE4rowsEv, symObjAddr: 0x3FD0, symBinAddr: 0x100007EAC, symSize: 0x20 }
  - { offsetInCU: 0x3B6B4, offset: 0x3B6B4, size: 0x8, addend: 0x0, symName: __ZNK5Eigen9EigenBaseINS_6MatrixIdLi4ELi4ELi0ELi4ELi4EEEE4colsEv, symObjAddr: 0x3FF0, symBinAddr: 0x100007ECC, symSize: 0x20 }
  - { offsetInCU: 0x3B6DC, offset: 0x3B6DC, size: 0x8, addend: 0x0, symName: __ZN5Eigen15PlainObjectBaseINS_6MatrixIdLi4ELi4ELi0ELi4ELi4EEEE6_init1INS_3MapIS2_Li0ENS_6StrideILi0ELi0EEEEES8_EEvRKNS_9DenseBaseIT0_EE, symObjAddr: 0x3FA8, symBinAddr: 0x100007E84, symSize: 0x28 }
  - { offsetInCU: 0x3B6E4, offset: 0x3B6E4, size: 0x8, addend: 0x0, symName: __ZNK5Eigen9EigenBaseINS_6MatrixIdLi4ELi4ELi0ELi4ELi4EEEE4rowsEv, symObjAddr: 0x3FD0, symBinAddr: 0x100007EAC, symSize: 0x20 }
  - { offsetInCU: 0x3B798, offset: 0x3B798, size: 0x8, addend: 0x0, symName: __ZN5Eigen15PlainObjectBaseINS_6MatrixIdLi4ELi4ELi0ELi4ELi4EEEEC2Ev, symObjAddr: 0x3F80, symBinAddr: 0x100007E5C, symSize: 0x28 }
  - { offsetInCU: 0x3B7A0, offset: 0x3B7A0, size: 0x8, addend: 0x0, symName: __ZN5Eigen15PlainObjectBaseINS_6MatrixIdLi4ELi4ELi0ELi4ELi4EEEE6_init1INS_3MapIS2_Li0ENS_6StrideILi0ELi0EEEEES8_EEvRKNS_9DenseBaseIT0_EE, symObjAddr: 0x3FA8, symBinAddr: 0x100007E84, symSize: 0x28 }
  - { offsetInCU: 0x3B7DD, offset: 0x3B7DD, size: 0x8, addend: 0x0, symName: __ZN5Eigen10MatrixBaseINS_6MatrixIdLi4ELi4ELi0ELi4ELi4EEEEC2Ev, symObjAddr: 0x3F60, symBinAddr: 0x100007E3C, symSize: 0x20 }
  - { offsetInCU: 0x3B7E5, offset: 0x3B7E5, size: 0x8, addend: 0x0, symName: __ZN5Eigen15PlainObjectBaseINS_6MatrixIdLi4ELi4ELi0ELi4ELi4EEEEC2Ev, symObjAddr: 0x3F80, symBinAddr: 0x100007E5C, symSize: 0x28 }
  - { offsetInCU: 0x3B7CF, offset: 0x3B7CF, size: 0x8, addend: 0x0, symName: __ZN5Eigen8internal19variable_if_dynamicIlLi0EE5valueEv, symObjAddr: 0x3F58, symBinAddr: 0x100007E34, symSize: 0x8 }
  - { offsetInCU: 0x3B7D7, offset: 0x3B7D7, size: 0x8, addend: 0x0, symName: __ZN5Eigen10MatrixBaseINS_6MatrixIdLi4ELi4ELi0ELi4ELi4EEEEC2Ev, symObjAddr: 0x3F60, symBinAddr: 0x100007E3C, symSize: 0x20 }
  - { offsetInCU: 0x3B7EB, offset: 0x3B7EB, size: 0x8, addend: 0x0, symName: __ZNK5Eigen7MapBaseINS_3MapINS_6MatrixIdLi4ELi4ELi0ELi4ELi4EEELi0ENS_6StrideILi0ELi0EEEEELi0EE11checkSanityIS6_EEvNSt9enable_ifIXeqsrNS_8internal6traitsIT_EE9AlignmentLi0EEPvE4typeE, symObjAddr: 0x3EF8, symBinAddr: 0x100007DD4, symSize: 0x60 }
  - { offsetInCU: 0x3B7F3, offset: 0x3B7F3, size: 0x8, addend: 0x0, symName: __ZN5Eigen8internal19variable_if_dynamicIlLi0EE5valueEv, symObjAddr: 0x3F58, symBinAddr: 0x100007E34, symSize: 0x8 }
  - { offsetInCU: 0x3B8BB, offset: 0x3B8BB, size: 0x8, addend: 0x0, symName: __ZN5Eigen8internal19variable_if_dynamicIlLi4EEC1El, symObjAddr: 0x3EA0, symBinAddr: 0x100007D7C, symSize: 0x58 }
  - { offsetInCU: 0x3B8C3, offset: 0x3B8C3, size: 0x8, addend: 0x0, symName: __ZNK5Eigen7MapBaseINS_3MapINS_6MatrixIdLi4ELi4ELi0ELi4ELi4EEELi0ENS_6StrideILi0ELi0EEEEELi0EE11checkSanityIS6_EEvNSt9enable_ifIXeqsrNS_8internal6traitsIT_EE9AlignmentLi0EEPvE4typeE, symObjAddr: 0x3EF8, symBinAddr: 0x100007DD4, symSize: 0x60 }
  - { offsetInCU: 0x3B951, offset: 0x3B951, size: 0x8, addend: 0x0, symName: __ZN5Eigen9DenseBaseINS_3MapINS_6MatrixIdLi4ELi4ELi0ELi4ELi4EEELi0ENS_6StrideILi0ELi0EEEEEEC2Ev, symObjAddr: 0x3E8C, symBinAddr: 0x100007D68, symSize: 0x14 }
  - { offsetInCU: 0x3B959, offset: 0x3B959, size: 0x8, addend: 0x0, symName: __ZN5Eigen8internal19variable_if_dynamicIlLi4EEC1El, symObjAddr: 0x3EA0, symBinAddr: 0x100007D7C, symSize: 0x58 }
  - { offsetInCU: 0x3B921, offset: 0x3B921, size: 0x8, addend: 0x0, symName: __ZNK5Eigen12DenseStorageIdLin1ELin1ELin1ELi0EE4dataEv, symObjAddr: 0x3E74, symBinAddr: 0x100007D50, symSize: 0x18 }
  - { offsetInCU: 0x3B929, offset: 0x3B929, size: 0x8, addend: 0x0, symName: __ZN5Eigen9DenseBaseINS_3MapINS_6MatrixIdLi4ELi4ELi0ELi4ELi4EEELi0ENS_6StrideILi0ELi0EEEEEEC2Ev, symObjAddr: 0x3E8C, symBinAddr: 0x100007D68, symSize: 0x14 }
  - { offsetInCU: 0x3B952, offset: 0x3B952, size: 0x8, addend: 0x0, symName: __ZN5Eigen16GenericNumTraitsIdE12max_digits10Ev, symObjAddr: 0x3E60, symBinAddr: 0x100007D3C, symSize: 0x14 }
  - { offsetInCU: 0x3B95A, offset: 0x3B95A, size: 0x8, addend: 0x0, symName: __ZNK5Eigen12DenseStorageIdLin1ELin1ELin1ELi0EE4dataEv, symObjAddr: 0x3E74, symBinAddr: 0x100007D50, symSize: 0x18 }
  - { offsetInCU: 0x3BA07, offset: 0x3BA07, size: 0x8, addend: 0x0, symName: __ZN5Eigen9BlockImplINS_6MatrixIdLin1ELin1ELi0ELin1ELin1EEELin1ELi1ELb1ENS_5DenseEEC2ERS2_l, symObjAddr: 0x3E30, symBinAddr: 0x100007D0C, symSize: 0x30 }
  - { offsetInCU: 0x3BA0F, offset: 0x3BA0F, size: 0x8, addend: 0x0, symName: __ZN5Eigen16GenericNumTraitsIdE12max_digits10Ev, symObjAddr: 0x3E60, symBinAddr: 0x100007D3C, symSize: 0x14 }
  - { offsetInCU: 0x3BB45, offset: 0x3BB45, size: 0x8, addend: 0x0, symName: __ZN5Eigen8internal24call_assignment_no_aliasINS_5BlockINS_6MatrixIdLin1ELin1ELi0ELin1ELin1EEELi1ELin1ELb0EEES5_NS0_14swap_assign_opIdEEEEvRT_RKT0_RKT1_, symObjAddr: 0x3DF8, symBinAddr: 0x100007CD4, symSize: 0x38 }
  - { offsetInCU: 0x3BB4D, offset: 0x3BB4D, size: 0x8, addend: 0x0, symName: __ZN5Eigen9BlockImplINS_6MatrixIdLin1ELin1ELi0ELin1ELin1EEELin1ELi1ELb1ENS_5DenseEEC2ERS2_l, symObjAddr: 0x3E30, symBinAddr: 0x100007D0C, symSize: 0x30 }
  - { offsetInCU: 0x3BABD, offset: 0x3BABD, size: 0x8, addend: 0x0, symName: __ZNK5Eigen7MapBaseINS_5BlockINS_6MatrixIdLin1ELin1ELi0ELin1ELin1EEELi1ELin1ELb0EEELi0EE4colsEv, symObjAddr: 0x3DD8, symBinAddr: 0x100007CB4, symSize: 0x20 }
  - { offsetInCU: 0x3BAC5, offset: 0x3BAC5, size: 0x8, addend: 0x0, symName: __ZN5Eigen8internal24call_assignment_no_aliasINS_5BlockINS_6MatrixIdLin1ELin1ELi0ELin1ELin1EEELi1ELin1ELb0EEES5_NS0_14swap_assign_opIdEEEEvRT_RKT0_RKT1_, symObjAddr: 0x3DF8, symBinAddr: 0x100007CD4, symSize: 0x38 }
  - { offsetInCU: 0x3BAED, offset: 0x3BAED, size: 0x8, addend: 0x0, symName: __ZNK5Eigen7MapBaseINS_5BlockINS_6MatrixIdLin1ELin1ELi0ELin1ELin1EEELi1ELin1ELb0EEELi0EE4rowsEv, symObjAddr: 0x3DC0, symBinAddr: 0x100007C9C, symSize: 0x18 }
  - { offsetInCU: 0x3BAF5, offset: 0x3BAF5, size: 0x8, addend: 0x0, symName: __ZNK5Eigen7MapBaseINS_5BlockINS_6MatrixIdLin1ELin1ELi0ELin1ELin1EEELi1ELin1ELb0EEELi0EE4colsEv, symObjAddr: 0x3DD8, symBinAddr: 0x100007CB4, symSize: 0x20 }
  - { offsetInCU: 0x3BB1D, offset: 0x3BB1D, size: 0x8, addend: 0x0, symName: __ZN5Eigen8internal9evaluatorINS_15PlainObjectBaseINS_6MatrixIdLin1ELin1ELi0ELin1ELin1EEEEEE8coeffRefEll, symObjAddr: 0x3D70, symBinAddr: 0x100007C4C, symSize: 0x50 }
  - { offsetInCU: 0x3BB25, offset: 0x3BB25, size: 0x8, addend: 0x0, symName: __ZNK5Eigen7MapBaseINS_5BlockINS_6MatrixIdLin1ELin1ELi0ELin1ELin1EEELi1ELin1ELb0EEELi0EE4rowsEv, symObjAddr: 0x3DC0, symBinAddr: 0x100007C9C, symSize: 0x18 }
  - { offsetInCU: 0x3BBEC, offset: 0x3BBEC, size: 0x8, addend: 0x0, symName: __ZN5Eigen8internal14evaluator_baseINS_6MatrixIdLin1ELin1ELi0ELin1ELin1EEEED2Ev, symObjAddr: 0x3D5C, symBinAddr: 0x100007C38, symSize: 0x14 }
  - { offsetInCU: 0x3BBF4, offset: 0x3BBF4, size: 0x8, addend: 0x0, symName: __ZN5Eigen8internal9evaluatorINS_15PlainObjectBaseINS_6MatrixIdLin1ELin1ELi0ELin1ELin1EEEEEE8coeffRefEll, symObjAddr: 0x3D70, symBinAddr: 0x100007C4C, symSize: 0x50 }
  - { offsetInCU: 0x3BC45, offset: 0x3BC45, size: 0x8, addend: 0x0, symName: __ZN5Eigen8internal9evaluatorINS_6MatrixIdLin1ELin1ELi0ELin1ELin1EEEEC1ERKS3_, symObjAddr: 0x3D34, symBinAddr: 0x100007C10, symSize: 0x28 }
  - { offsetInCU: 0x3BC4D, offset: 0x3BC4D, size: 0x8, addend: 0x0, symName: __ZN5Eigen8internal14evaluator_baseINS_6MatrixIdLin1ELin1ELi0ELin1ELin1EEEED2Ev, symObjAddr: 0x3D5C, symBinAddr: 0x100007C38, symSize: 0x14 }
  - { offsetInCU: 0x3BC33, offset: 0x3BC33, size: 0x8, addend: 0x0, symName: __ZNK5Eigen9DenseBaseINS_12CwiseUnaryOpINS_8internal13scalar_abs_opIdEEKNS_5BlockINS_6MatrixIdLin1ELin1ELi0ELin1ELin1EEELi1ELin1ELb0EEEEEE5reduxINS2_13scalar_max_opIddLi0EEEEEdRKT_, symObjAddr: 0x3C20, symBinAddr: 0x100007AFC, symSize: 0x114 }
  - { offsetInCU: 0x3BC3B, offset: 0x3BC3B, size: 0x8, addend: 0x0, symName: __ZN5Eigen8internal9evaluatorINS_6MatrixIdLin1ELin1ELi0ELin1ELin1EEEEC1ERKS3_, symObjAddr: 0x3D34, symBinAddr: 0x100007C10, symSize: 0x28 }
  - { offsetInCU: 0x3BDA2, offset: 0x3BDA2, size: 0x8, addend: 0x0, symName: __ZN5Eigen8internal15redux_evaluatorINS_12CwiseUnaryOpINS0_13scalar_abs_opIdEEKNS_5BlockINS_6MatrixIdLin1ELin1ELi0ELin1ELin1EEELi1ELin1ELb0EEEEEED1Ev, symObjAddr: 0x3C00, symBinAddr: 0x100007ADC, symSize: 0x20 }
  - { offsetInCU: 0x3BDAA, offset: 0x3BDAA, size: 0x8, addend: 0x0, symName: __ZNK5Eigen9DenseBaseINS_12CwiseUnaryOpINS_8internal13scalar_abs_opIdEEKNS_5BlockINS_6MatrixIdLin1ELin1ELi0ELin1ELin1EEELi1ELin1ELb0EEEEEE5reduxINS2_13scalar_max_opIddLi0EEEEEdRKT_, symObjAddr: 0x3C20, symBinAddr: 0x100007AFC, symSize: 0x114 }
  - { offsetInCU: 0x3BDF7, offset: 0x3BDF7, size: 0x8, addend: 0x0, symName: __ZN5Eigen8internal9evaluatorINS_12CwiseUnaryOpINS0_13scalar_abs_opIdEEKNS_5BlockINS_6MatrixIdLin1ELin1ELi0ELin1ELin1EEELi1ELin1ELb0EEEEEED2Ev, symObjAddr: 0x3BE0, symBinAddr: 0x100007ABC, symSize: 0x20 }
  - { offsetInCU: 0x3BDFF, offset: 0x3BDFF, size: 0x8, addend: 0x0, symName: __ZN5Eigen8internal15redux_evaluatorINS_12CwiseUnaryOpINS0_13scalar_abs_opIdEEKNS_5BlockINS_6MatrixIdLin1ELin1ELi0ELin1ELin1EEELi1ELin1ELb0EEEEEED1Ev, symObjAddr: 0x3C00, symBinAddr: 0x100007ADC, symSize: 0x20 }
  - { offsetInCU: 0x3BE6D, offset: 0x3BE6D, size: 0x8, addend: 0x0, symName: __ZN5Eigen8internal15unary_evaluatorINS_12CwiseUnaryOpINS0_13scalar_abs_opIdEEKNS_5BlockINS_6MatrixIdLin1ELin1ELi0ELin1ELin1EEELi1ELin1ELb0EEEEENS0_10IndexBasedEdED2Ev, symObjAddr: 0x3BB8, symBinAddr: 0x100007A94, symSize: 0x28 }
  - { offsetInCU: 0x3BE75, offset: 0x3BE75, size: 0x8, addend: 0x0, symName: __ZN5Eigen8internal9evaluatorINS_12CwiseUnaryOpINS0_13scalar_abs_opIdEEKNS_5BlockINS_6MatrixIdLin1ELin1ELi0ELin1ELin1EEELi1ELin1ELb0EEEEEED2Ev, symObjAddr: 0x3BE0, symBinAddr: 0x100007ABC, symSize: 0x20 }
  - { offsetInCU: 0x3BECF, offset: 0x3BECF, size: 0x8, addend: 0x0, symName: __ZN5Eigen8internal15unary_evaluatorINS_12CwiseUnaryOpINS0_13scalar_abs_opIdEEKNS_5BlockINS_6MatrixIdLin1ELin1ELi0ELin1ELin1EEELi1ELin1ELb0EEEEENS0_10IndexBasedEdE4DataD1Ev, symObjAddr: 0x3B94, symBinAddr: 0x100007A70, symSize: 0x24 }
  - { offsetInCU: 0x3BED7, offset: 0x3BED7, size: 0x8, addend: 0x0, symName: __ZN5Eigen8internal15unary_evaluatorINS_12CwiseUnaryOpINS0_13scalar_abs_opIdEEKNS_5BlockINS_6MatrixIdLin1ELin1ELi0ELin1ELin1EEELi1ELin1ELb0EEEEENS0_10IndexBasedEdED2Ev, symObjAddr: 0x3BB8, symBinAddr: 0x100007A94, symSize: 0x28 }
  - { offsetInCU: 0x3BEE2, offset: 0x3BEE2, size: 0x8, addend: 0x0, symName: __ZN5Eigen8internal9evaluatorIKNS_5BlockINS_6MatrixIdLin1ELin1ELi0ELin1ELin1EEELi1ELin1ELb0EEEED1Ev, symObjAddr: 0x3B74, symBinAddr: 0x100007A50, symSize: 0x20 }
  - { offsetInCU: 0x3BEEA, offset: 0x3BEEA, size: 0x8, addend: 0x0, symName: __ZN5Eigen8internal15unary_evaluatorINS_12CwiseUnaryOpINS0_13scalar_abs_opIdEEKNS_5BlockINS_6MatrixIdLin1ELin1ELi0ELin1ELin1EEELi1ELin1ELb0EEEEENS0_10IndexBasedEdE4DataD1Ev, symObjAddr: 0x3B94, symBinAddr: 0x100007A70, symSize: 0x24 }
  - { offsetInCU: 0x3BF3E, offset: 0x3BF3E, size: 0x8, addend: 0x0, symName: __ZN5Eigen8internal9evaluatorINS_5BlockINS_6MatrixIdLin1ELin1ELi0ELin1ELin1EEELi1ELin1ELb0EEEED1Ev, symObjAddr: 0x3B54, symBinAddr: 0x100007A30, symSize: 0x20 }
  - { offsetInCU: 0x3BF46, offset: 0x3BF46, size: 0x8, addend: 0x0, symName: __ZN5Eigen8internal9evaluatorIKNS_5BlockINS_6MatrixIdLin1ELin1ELi0ELin1ELin1EEELi1ELin1ELb0EEEED1Ev, symObjAddr: 0x3B74, symBinAddr: 0x100007A50, symSize: 0x20 }
  - { offsetInCU: 0x3BF6D, offset: 0x3BF6D, size: 0x8, addend: 0x0, symName: __ZN5Eigen8internal9evaluatorINS_5BlockINS_6MatrixIdLin1ELin1ELi0ELin1ELin1EEELi1ELin1ELb0EEEED2Ev, symObjAddr: 0x3B34, symBinAddr: 0x100007A10, symSize: 0x20 }
  - { offsetInCU: 0x3BF75, offset: 0x3BF75, size: 0x8, addend: 0x0, symName: __ZN5Eigen8internal9evaluatorINS_5BlockINS_6MatrixIdLin1ELin1ELi0ELin1ELin1EEELi1ELin1ELb0EEEED1Ev, symObjAddr: 0x3B54, symBinAddr: 0x100007A30, symSize: 0x20 }
  - { offsetInCU: 0x3BFC9, offset: 0x3BFC9, size: 0x8, addend: 0x0, symName: __ZN5Eigen8internal15block_evaluatorINS_6MatrixIdLin1ELin1ELi0ELin1ELin1EEELi1ELin1ELb0ELb1EED2Ev, symObjAddr: 0x3B14, symBinAddr: 0x1000079F0, symSize: 0x20 }
  - { offsetInCU: 0x3BFD1, offset: 0x3BFD1, size: 0x8, addend: 0x0, symName: __ZN5Eigen8internal9evaluatorINS_5BlockINS_6MatrixIdLin1ELin1ELi0ELin1ELin1EEELi1ELin1ELb0EEEED2Ev, symObjAddr: 0x3B34, symBinAddr: 0x100007A10, symSize: 0x20 }
  - { offsetInCU: 0x3C04E, offset: 0x3C04E, size: 0x8, addend: 0x0, symName: __ZN5Eigen8internal17mapbase_evaluatorINS_5BlockINS_6MatrixIdLin1ELin1ELi0ELin1ELin1EEELi1ELin1ELb0EEENS3_IdLi1ELin1ELi1ELi1ELin1EEEED2Ev, symObjAddr: 0x3AF4, symBinAddr: 0x1000079D0, symSize: 0x20 }
  - { offsetInCU: 0x3C056, offset: 0x3C056, size: 0x8, addend: 0x0, symName: __ZN5Eigen8internal15block_evaluatorINS_6MatrixIdLin1ELin1ELi0ELin1ELin1EEELi1ELin1ELb0ELb1EED2Ev, symObjAddr: 0x3B14, symBinAddr: 0x1000079F0, symSize: 0x20 }
  - { offsetInCU: 0x3BFF4, offset: 0x3BFF4, size: 0x8, addend: 0x0, symName: __ZNK5Eigen9EigenBaseINS_12CwiseUnaryOpINS_8internal13scalar_abs_opIdEEKNS_5BlockINS_6MatrixIdLin1ELin1ELi0ELin1ELin1EEELi1ELin1ELb0EEEEEE7derivedEv, symObjAddr: 0x3AE0, symBinAddr: 0x1000079BC, symSize: 0x14 }
  - { offsetInCU: 0x3BFFC, offset: 0x3BFFC, size: 0x8, addend: 0x0, symName: __ZN5Eigen8internal17mapbase_evaluatorINS_5BlockINS_6MatrixIdLin1ELin1ELi0ELin1ELin1EEELi1ELin1ELb0EEENS3_IdLi1ELin1ELi1ELi1ELin1EEEED2Ev, symObjAddr: 0x3AF4, symBinAddr: 0x1000079D0, symSize: 0x20 }
  - { offsetInCU: 0x3C0CC, offset: 0x3C0CC, size: 0x8, addend: 0x0, symName: __ZN5Eigen9DenseBaseINS_12CwiseUnaryOpINS_8internal13scalar_abs_opIdEEKNS_5BlockINS_6MatrixIdLin1ELin1ELi0ELin1ELin1EEELi1ELin1ELb0EEEEEEC2Ev, symObjAddr: 0x3ACC, symBinAddr: 0x1000079A8, symSize: 0x14 }
  - { offsetInCU: 0x3C0D4, offset: 0x3C0D4, size: 0x8, addend: 0x0, symName: __ZNK5Eigen9EigenBaseINS_12CwiseUnaryOpINS_8internal13scalar_abs_opIdEEKNS_5BlockINS_6MatrixIdLin1ELin1ELi0ELin1ELin1EEELi1ELin1ELb0EEEEEE7derivedEv, symObjAddr: 0x3AE0, symBinAddr: 0x1000079BC, symSize: 0x14 }
  - { offsetInCU: 0x3C106, offset: 0x3C106, size: 0x8, addend: 0x0, symName: __ZN5Eigen9BlockImplINS_6MatrixIdLin1ELin1ELi0ELin1ELin1EEELi1ELin1ELb0ENS_5DenseEEC2ERS2_l, symObjAddr: 0x3A9C, symBinAddr: 0x100007978, symSize: 0x30 }
  - { offsetInCU: 0x3C10E, offset: 0x3C10E, size: 0x8, addend: 0x0, symName: __ZN5Eigen9DenseBaseINS_12CwiseUnaryOpINS_8internal13scalar_abs_opIdEEKNS_5BlockINS_6MatrixIdLin1ELin1ELi0ELin1ELin1EEELi1ELin1ELb0EEEEEEC2Ev, symObjAddr: 0x3ACC, symBinAddr: 0x1000079A8, symSize: 0x14 }
  - { offsetInCU: 0x3C0F2, offset: 0x3C0F2, size: 0x8, addend: 0x0, symName: __ZN5Eigen12DenseStorageIdLin1ELin1ELin1ELi0EE6resizeElll, symObjAddr: 0x39EC, symBinAddr: 0x1000078C8, symSize: 0xB0 }
  - { offsetInCU: 0x3C0FA, offset: 0x3C0FA, size: 0x8, addend: 0x0, symName: __ZN5Eigen9BlockImplINS_6MatrixIdLin1ELin1ELi0ELin1ELin1EEELi1ELin1ELb0ENS_5DenseEEC2ERS2_l, symObjAddr: 0x3A9C, symBinAddr: 0x100007978, symSize: 0x30 }
  - { offsetInCU: 0x3C237, offset: 0x3C237, size: 0x8, addend: 0x0, symName: __ZNK5Eigen15PlainObjectBaseINS_6MatrixIdLi4ELi4ELi0ELi4ELi4EEEE5coeffEll, symObjAddr: 0x399C, symBinAddr: 0x100007878, symSize: 0x50 }
  - { offsetInCU: 0x3C23F, offset: 0x3C23F, size: 0x8, addend: 0x0, symName: __ZN5Eigen12DenseStorageIdLin1ELin1ELin1ELi0EE6resizeElll, symObjAddr: 0x39EC, symBinAddr: 0x1000078C8, symSize: 0xB0 }
  - { offsetInCU: 0x3C28D, offset: 0x3C28D, size: 0x8, addend: 0x0, symName: __ZNK5Eigen15PlainObjectBaseINS_6MatrixIdLi4ELi4ELi0ELi4ELi4EEEE4rowsEv, symObjAddr: 0x3984, symBinAddr: 0x100007860, symSize: 0x18 }
  - { offsetInCU: 0x3C295, offset: 0x3C295, size: 0x8, addend: 0x0, symName: __ZNK5Eigen15PlainObjectBaseINS_6MatrixIdLi4ELi4ELi0ELi4ELi4EEEE5coeffEll, symObjAddr: 0x399C, symBinAddr: 0x100007878, symSize: 0x50 }
  - { offsetInCU: 0x3C2BD, offset: 0x3C2BD, size: 0x8, addend: 0x0, symName: __ZNK5Eigen15PlainObjectBaseINS_6MatrixIdLi4ELi4ELi0ELi4ELi4EEEE4colsEv, symObjAddr: 0x396C, symBinAddr: 0x100007848, symSize: 0x18 }
  - { offsetInCU: 0x3C2C5, offset: 0x3C2C5, size: 0x8, addend: 0x0, symName: __ZNK5Eigen15PlainObjectBaseINS_6MatrixIdLi4ELi4ELi0ELi4ELi4EEEE4rowsEv, symObjAddr: 0x3984, symBinAddr: 0x100007860, symSize: 0x18 }
  - { offsetInCU: 0x3C2ED, offset: 0x3C2ED, size: 0x8, addend: 0x0, symName: __ZNK5Eigen9EigenBaseINS_6MatrixIdLi4ELi4ELi0ELi4ELi4EEEE4sizeEv, symObjAddr: 0x3938, symBinAddr: 0x100007814, symSize: 0x34 }
  - { offsetInCU: 0x3C2F5, offset: 0x3C2F5, size: 0x8, addend: 0x0, symName: __ZNK5Eigen15PlainObjectBaseINS_6MatrixIdLi4ELi4ELi0ELi4ELi4EEEE4colsEv, symObjAddr: 0x396C, symBinAddr: 0x100007848, symSize: 0x18 }
  - { offsetInCU: 0x3C3AD, offset: 0x3C3AD, size: 0x8, addend: 0x0, symName: __ZN5Eigen6MatrixIdLi4ELi4ELi0ELi4ELi4EEC1INS_3MapIS1_Li0ENS_6StrideILi0ELi0EEEEEEERKT_, symObjAddr: 0x3908, symBinAddr: 0x1000077E4, symSize: 0x30 }
  - { offsetInCU: 0x3C3B5, offset: 0x3C3B5, size: 0x8, addend: 0x0, symName: __ZNK5Eigen9EigenBaseINS_6MatrixIdLi4ELi4ELi0ELi4ELi4EEEE4sizeEv, symObjAddr: 0x3938, symBinAddr: 0x100007814, symSize: 0x34 }
  - { offsetInCU: 0x3C39E, offset: 0x3C39E, size: 0x8, addend: 0x0, symName: __ZNK5Eigen9EigenBaseINS_3MapINS_6MatrixIdLi4ELi4ELi0ELi4ELi4EEELi0ENS_6StrideILi0ELi0EEEEEE7derivedEv, symObjAddr: 0x38F4, symBinAddr: 0x1000077D0, symSize: 0x14 }
  - { offsetInCU: 0x3C3A6, offset: 0x3C3A6, size: 0x8, addend: 0x0, symName: __ZN5Eigen6MatrixIdLi4ELi4ELi0ELi4ELi4EEC1INS_3MapIS1_Li0ENS_6StrideILi0ELi0EEEEEEERKT_, symObjAddr: 0x3908, symBinAddr: 0x1000077E4, symSize: 0x30 }
  - { offsetInCU: 0x3C3CE, offset: 0x3C3CE, size: 0x8, addend: 0x0, symName: __ZNK5Eigen6StrideILi0ELi0EE5innerEv, symObjAddr: 0x38DC, symBinAddr: 0x1000077B8, symSize: 0x18 }
  - { offsetInCU: 0x3C3D6, offset: 0x3C3D6, size: 0x8, addend: 0x0, symName: __ZNK5Eigen9EigenBaseINS_3MapINS_6MatrixIdLi4ELi4ELi0ELi4ELi4EEELi0ENS_6StrideILi0ELi0EEEEEE7derivedEv, symObjAddr: 0x38F4, symBinAddr: 0x1000077D0, symSize: 0x14 }
  - { offsetInCU: 0x3C3FE, offset: 0x3C3FE, size: 0x8, addend: 0x0, symName: __ZNK5Eigen6StrideILi0ELi0EE5outerEv, symObjAddr: 0x38C4, symBinAddr: 0x1000077A0, symSize: 0x18 }
  - { offsetInCU: 0x3C406, offset: 0x3C406, size: 0x8, addend: 0x0, symName: __ZNK5Eigen6StrideILi0ELi0EE5innerEv, symObjAddr: 0x38DC, symBinAddr: 0x1000077B8, symSize: 0x18 }
  - { offsetInCU: 0x3C4BC, offset: 0x3C4BC, size: 0x8, addend: 0x0, symName: __ZN5Eigen7MapBaseINS_3MapINS_6MatrixIdLi4ELi4ELi0ELi4ELi4EEELi0ENS_6StrideILi0ELi0EEEEELi0EEC2EPd, symObjAddr: 0x3868, symBinAddr: 0x100007744, symSize: 0x5C }
  - { offsetInCU: 0x3C4C4, offset: 0x3C4C4, size: 0x8, addend: 0x0, symName: __ZNK5Eigen6StrideILi0ELi0EE5outerEv, symObjAddr: 0x38C4, symBinAddr: 0x1000077A0, symSize: 0x18 }
  - { offsetInCU: 0x3C511, offset: 0x3C511, size: 0x8, addend: 0x0, symName: __ZN5Eigen10MatrixBaseINS_3MapINS_6MatrixIdLi4ELi4ELi0ELi4ELi4EEELi0ENS_6StrideILi0ELi0EEEEEEC2Ev, symObjAddr: 0x3848, symBinAddr: 0x100007724, symSize: 0x20 }
  - { offsetInCU: 0x3C519, offset: 0x3C519, size: 0x8, addend: 0x0, symName: __ZN5Eigen7MapBaseINS_3MapINS_6MatrixIdLi4ELi4ELi0ELi4ELi4EEELi0ENS_6StrideILi0ELi0EEEEELi0EEC2EPd, symObjAddr: 0x3868, symBinAddr: 0x100007744, symSize: 0x5C }
  - { offsetInCU: 0x3C512, offset: 0x3C512, size: 0x8, addend: 0x0, symName: __ZSt3maxIlERKT_S2_S2_, symObjAddr: 0x3810, symBinAddr: 0x1000076EC, symSize: 0x38 }
  - { offsetInCU: 0x3C51A, offset: 0x3C51A, size: 0x8, addend: 0x0, symName: __ZN5Eigen10MatrixBaseINS_3MapINS_6MatrixIdLi4ELi4ELi0ELi4ELi4EEELi0ENS_6StrideILi0ELi0EEEEEEC2Ev, symObjAddr: 0x3848, symBinAddr: 0x100007724, symSize: 0x20 }
  - { offsetInCU: 0x3C54A, offset: 0x3C54A, size: 0x8, addend: 0x0, symName: __ZNK5Eigen15PlainObjectBaseINS_6MatrixIdLin1ELin1ELi0ELin1ELin1EEEE5coeffEll, symObjAddr: 0x37BC, symBinAddr: 0x100007698, symSize: 0x54 }
  - { offsetInCU: 0x3C552, offset: 0x3C552, size: 0x8, addend: 0x0, symName: __ZSt3maxIlERKT_S2_S2_, symObjAddr: 0x3810, symBinAddr: 0x1000076EC, symSize: 0x38 }
  - { offsetInCU: 0x3C5AB, offset: 0x3C5AB, size: 0x8, addend: 0x0, symName: __ZN5Eigen8internal25significant_decimals_implIdE3runEv, symObjAddr: 0x37A8, symBinAddr: 0x100007684, symSize: 0x14 }
  - { offsetInCU: 0x3C5B3, offset: 0x3C5B3, size: 0x8, addend: 0x0, symName: __ZNK5Eigen15PlainObjectBaseINS_6MatrixIdLin1ELin1ELi0ELin1ELin1EEEE5coeffEll, symObjAddr: 0x37BC, symBinAddr: 0x100007698, symSize: 0x54 }
  - { offsetInCU: 0x3C5C8, offset: 0x3C5C8, size: 0x8, addend: 0x0, symName: __ZNK5Eigen9EigenBaseINS_6MatrixIdLin1ELin1ELi0ELin1ELin1EEEE4sizeEv, symObjAddr: 0x3774, symBinAddr: 0x100007650, symSize: 0x34 }
  - { offsetInCU: 0x3C5D0, offset: 0x3C5D0, size: 0x8, addend: 0x0, symName: __ZN5Eigen8internal25significant_decimals_implIdE3runEv, symObjAddr: 0x37A8, symBinAddr: 0x100007684, symSize: 0x14 }
  - { offsetInCU: 0x3C5F8, offset: 0x3C5F8, size: 0x8, addend: 0x0, symName: __ZNK5Eigen9EigenBaseINS_6MatrixIdLin1ELin1ELi0ELin1ELin1EEEE7derivedEv, symObjAddr: 0x3760, symBinAddr: 0x10000763C, symSize: 0x14 }
  - { offsetInCU: 0x3C600, offset: 0x3C600, size: 0x8, addend: 0x0, symName: __ZNK5Eigen9EigenBaseINS_6MatrixIdLin1ELin1ELi0ELin1ELin1EEEE4sizeEv, symObjAddr: 0x3774, symBinAddr: 0x100007650, symSize: 0x34 }
  - { offsetInCU: 0x3C6C1, offset: 0x3C6C1, size: 0x8, addend: 0x0, symName: __ZN5Eigen5BlockINS_6MatrixIdLin1ELin1ELi0ELin1ELin1EEELin1ELi1ELb1EEC1ERS2_l, symObjAddr: 0x36B8, symBinAddr: 0x100007594, symSize: 0xA8 }
  - { offsetInCU: 0x3C6C9, offset: 0x3C6C9, size: 0x8, addend: 0x0, symName: __ZNK5Eigen9EigenBaseINS_6MatrixIdLin1ELin1ELi0ELin1ELin1EEEE7derivedEv, symObjAddr: 0x3760, symBinAddr: 0x10000763C, symSize: 0x14 }
  - { offsetInCU: 0x3C879, offset: 0x3C879, size: 0x8, addend: 0x0, symName: __ZN5Eigen8internal15call_assignmentINS_5BlockINS_6MatrixIdLin1ELin1ELi0ELin1ELin1EEELi1ELin1ELb0EEES5_NS0_14swap_assign_opIdEEEEvRT_RKT0_RKT1_NSt9enable_ifIXntsrNS0_25evaluator_assume_aliasingISA_NS0_16evaluator_traitsISA_E5ShapeEEE5valueEPvE4typeE, symObjAddr: 0x3684, symBinAddr: 0x100007560, symSize: 0x34 }
  - { offsetInCU: 0x3C881, offset: 0x3C881, size: 0x8, addend: 0x0, symName: __ZN5Eigen5BlockINS_6MatrixIdLin1ELin1ELi0ELin1ELin1EEELin1ELi1ELb1EEC1ERS2_l, symObjAddr: 0x36B8, symBinAddr: 0x100007594, symSize: 0xA8 }
  - { offsetInCU: 0x3C762, offset: 0x3C762, size: 0x8, addend: 0x0, symName: __ZNK5Eigen9EigenBaseINS_5BlockINS_6MatrixIdLin1ELin1ELi0ELin1ELin1EEELi1ELin1ELb0EEEE18const_cast_derivedEv, symObjAddr: 0x3670, symBinAddr: 0x10000754C, symSize: 0x14 }
  - { offsetInCU: 0x3C76A, offset: 0x3C76A, size: 0x8, addend: 0x0, symName: __ZN5Eigen8internal15call_assignmentINS_5BlockINS_6MatrixIdLin1ELin1ELi0ELin1ELin1EEELi1ELin1ELb0EEES5_NS0_14swap_assign_opIdEEEEvRT_RKT0_RKT1_NSt9enable_ifIXntsrNS0_25evaluator_assume_aliasingISA_NS0_16evaluator_traitsISA_E5ShapeEEE5valueEPvE4typeE, symObjAddr: 0x3684, symBinAddr: 0x100007560, symSize: 0x34 }
  - { offsetInCU: 0x3C792, offset: 0x3C792, size: 0x8, addend: 0x0, symName: __ZN5Eigen9EigenBaseINS_5BlockINS_6MatrixIdLin1ELin1ELi0ELin1ELin1EEELi1ELin1ELb0EEEE7derivedEv, symObjAddr: 0x365C, symBinAddr: 0x100007538, symSize: 0x14 }
  - { offsetInCU: 0x3C79A, offset: 0x3C79A, size: 0x8, addend: 0x0, symName: __ZNK5Eigen9EigenBaseINS_5BlockINS_6MatrixIdLin1ELin1ELi0ELin1ELin1EEELi1ELin1ELb0EEEE18const_cast_derivedEv, symObjAddr: 0x3670, symBinAddr: 0x10000754C, symSize: 0x14 }
  - { offsetInCU: 0x3C7C2, offset: 0x3C7C2, size: 0x8, addend: 0x0, symName: __ZNK5Eigen9EigenBaseINS_5BlockINS_6MatrixIdLin1ELin1ELi0ELin1ELin1EEELi1ELin1ELb0EEEE4colsEv, symObjAddr: 0x363C, symBinAddr: 0x100007518, symSize: 0x20 }
  - { offsetInCU: 0x3C7CA, offset: 0x3C7CA, size: 0x8, addend: 0x0, symName: __ZN5Eigen9EigenBaseINS_5BlockINS_6MatrixIdLin1ELin1ELi0ELin1ELin1EEELi1ELin1ELb0EEEE7derivedEv, symObjAddr: 0x365C, symBinAddr: 0x100007538, symSize: 0x14 }
  - { offsetInCU: 0x3C7F2, offset: 0x3C7F2, size: 0x8, addend: 0x0, symName: __ZNK5Eigen9EigenBaseINS_5BlockINS_6MatrixIdLin1ELin1ELi0ELin1ELin1EEELi1ELin1ELb0EEEE4rowsEv, symObjAddr: 0x361C, symBinAddr: 0x1000074F8, symSize: 0x20 }
  - { offsetInCU: 0x3C7FA, offset: 0x3C7FA, size: 0x8, addend: 0x0, symName: __ZNK5Eigen9EigenBaseINS_5BlockINS_6MatrixIdLin1ELin1ELi0ELin1ELin1EEELi1ELin1ELb0EEEE4colsEv, symObjAddr: 0x363C, symBinAddr: 0x100007518, symSize: 0x20 }
  - { offsetInCU: 0x3C822, offset: 0x3C822, size: 0x8, addend: 0x0, symName: __ZN5Eigen15DenseCoeffsBaseINS_6MatrixIdLin1ELin1ELi0ELin1ELin1EEELi1EE8coeffRefEll, symObjAddr: 0x35A8, symBinAddr: 0x100007484, symSize: 0x74 }
  - { offsetInCU: 0x3C82A, offset: 0x3C82A, size: 0x8, addend: 0x0, symName: __ZNK5Eigen9EigenBaseINS_5BlockINS_6MatrixIdLin1ELin1ELi0ELin1ELin1EEELi1ELin1ELb0EEEE4rowsEv, symObjAddr: 0x361C, symBinAddr: 0x1000074F8, symSize: 0x20 }
  - { offsetInCU: 0x3C8F0, offset: 0x3C8F0, size: 0x8, addend: 0x0, symName: __ZN5Eigen8internal9evaluatorINS_6MatrixIdLin1ELin1ELi0ELin1ELin1EEEED1Ev, symObjAddr: 0x3588, symBinAddr: 0x100007464, symSize: 0x20 }
  - { offsetInCU: 0x3C8F8, offset: 0x3C8F8, size: 0x8, addend: 0x0, symName: __ZN5Eigen15DenseCoeffsBaseINS_6MatrixIdLin1ELin1ELi0ELin1ELin1EEELi1EE8coeffRefEll, symObjAddr: 0x35A8, symBinAddr: 0x100007484, symSize: 0x74 }
  - { offsetInCU: 0x3C963, offset: 0x3C963, size: 0x8, addend: 0x0, symName: __ZN5Eigen8internal9evaluatorINS_15PlainObjectBaseINS_6MatrixIdLin1ELin1ELi0ELin1ELin1EEEEEED2Ev, symObjAddr: 0x3568, symBinAddr: 0x100007444, symSize: 0x20 }
  - { offsetInCU: 0x3C96B, offset: 0x3C96B, size: 0x8, addend: 0x0, symName: __ZN5Eigen8internal9evaluatorINS_6MatrixIdLin1ELin1ELi0ELin1ELin1EEEED1Ev, symObjAddr: 0x3588, symBinAddr: 0x100007464, symSize: 0x20 }
  - { offsetInCU: 0x3C932, offset: 0x3C932, size: 0x8, addend: 0x0, symName: __ZNK5Eigen9EigenBaseINS_6MatrixIdLin1ELin1ELi0ELin1ELin1EEEE4colsEv, symObjAddr: 0x3548, symBinAddr: 0x100007424, symSize: 0x20 }
  - { offsetInCU: 0x3C93A, offset: 0x3C93A, size: 0x8, addend: 0x0, symName: __ZN5Eigen8internal9evaluatorINS_15PlainObjectBaseINS_6MatrixIdLin1ELin1ELi0ELin1ELin1EEEEEED2Ev, symObjAddr: 0x3568, symBinAddr: 0x100007444, symSize: 0x20 }
  - { offsetInCU: 0x3C962, offset: 0x3C962, size: 0x8, addend: 0x0, symName: __ZNK5Eigen9EigenBaseINS_6MatrixIdLin1ELin1ELi0ELin1ELin1EEEE4rowsEv, symObjAddr: 0x3528, symBinAddr: 0x100007404, symSize: 0x20 }
  - { offsetInCU: 0x3C96A, offset: 0x3C96A, size: 0x8, addend: 0x0, symName: __ZNK5Eigen9EigenBaseINS_6MatrixIdLin1ELin1ELi0ELin1ELin1EEEE4colsEv, symObjAddr: 0x3548, symBinAddr: 0x100007424, symSize: 0x20 }
  - { offsetInCU: 0x3C992, offset: 0x3C992, size: 0x8, addend: 0x0, symName: __ZNK5Eigen9DenseBaseINS_12CwiseUnaryOpINS_8internal13scalar_abs_opIdEEKNS_5BlockINS_6MatrixIdLin1ELin1ELi0ELin1ELin1EEELi1ELin1ELb0EEEEEE8maxCoeffILi0EEEdv, symObjAddr: 0x34F8, symBinAddr: 0x1000073D4, symSize: 0x30 }
  - { offsetInCU: 0x3C99A, offset: 0x3C99A, size: 0x8, addend: 0x0, symName: __ZNK5Eigen9EigenBaseINS_6MatrixIdLin1ELin1ELi0ELin1ELin1EEEE4rowsEv, symObjAddr: 0x3528, symBinAddr: 0x100007404, symSize: 0x20 }
  - { offsetInCU: 0x3CA92, offset: 0x3CA92, size: 0x8, addend: 0x0, symName: __ZN5Eigen12CwiseUnaryOpINS_8internal13scalar_abs_opIdEEKNS_5BlockINS_6MatrixIdLin1ELin1ELi0ELin1ELin1EEELi1ELin1ELb0EEEEC1ERS8_RKS3_, symObjAddr: 0x34B0, symBinAddr: 0x10000738C, symSize: 0x48 }
  - { offsetInCU: 0x3CA9A, offset: 0x3CA9A, size: 0x8, addend: 0x0, symName: __ZNK5Eigen9DenseBaseINS_12CwiseUnaryOpINS_8internal13scalar_abs_opIdEEKNS_5BlockINS_6MatrixIdLin1ELin1ELi0ELin1ELin1EEELi1ELin1ELb0EEEEEE8maxCoeffILi0EEEdv, symObjAddr: 0x34F8, symBinAddr: 0x1000073D4, symSize: 0x30 }
  - { offsetInCU: 0x3CB10, offset: 0x3CB10, size: 0x8, addend: 0x0, symName: __ZN5Eigen16CwiseUnaryOpImplINS_8internal13scalar_abs_opIdEEKNS_5BlockINS_6MatrixIdLin1ELin1ELi0ELin1ELin1EEELi1ELin1ELb0EEENS_5DenseEEC2Ev, symObjAddr: 0x3490, symBinAddr: 0x10000736C, symSize: 0x20 }
  - { offsetInCU: 0x3CB18, offset: 0x3CB18, size: 0x8, addend: 0x0, symName: __ZN5Eigen12CwiseUnaryOpINS_8internal13scalar_abs_opIdEEKNS_5BlockINS_6MatrixIdLin1ELin1ELi0ELin1ELin1EEELi1ELin1ELb0EEEEC1ERS8_RKS3_, symObjAddr: 0x34B0, symBinAddr: 0x10000738C, symSize: 0x48 }
  - { offsetInCU: 0x3CB5E, offset: 0x3CB5E, size: 0x8, addend: 0x0, symName: __ZN5Eigen10MatrixBaseINS_12CwiseUnaryOpINS_8internal13scalar_abs_opIdEEKNS_5BlockINS_6MatrixIdLin1ELin1ELi0ELin1ELin1EEELi1ELin1ELb0EEEEEEC2Ev, symObjAddr: 0x3470, symBinAddr: 0x10000734C, symSize: 0x20 }
  - { offsetInCU: 0x3CB66, offset: 0x3CB66, size: 0x8, addend: 0x0, symName: __ZN5Eigen16CwiseUnaryOpImplINS_8internal13scalar_abs_opIdEEKNS_5BlockINS_6MatrixIdLin1ELin1ELi0ELin1ELin1EEELi1ELin1ELb0EEENS_5DenseEEC2Ev, symObjAddr: 0x3490, symBinAddr: 0x10000736C, symSize: 0x20 }
  - { offsetInCU: 0x3CAFE, offset: 0x3CAFE, size: 0x8, addend: 0x0, symName: __ZNK5Eigen9EigenBaseINS_5BlockINS_6MatrixIdLin1ELin1ELi0ELin1ELin1EEELi1ELin1ELb0EEEE7derivedEv, symObjAddr: 0x345C, symBinAddr: 0x100007338, symSize: 0x14 }
  - { offsetInCU: 0x3CB06, offset: 0x3CB06, size: 0x8, addend: 0x0, symName: __ZN5Eigen10MatrixBaseINS_12CwiseUnaryOpINS_8internal13scalar_abs_opIdEEKNS_5BlockINS_6MatrixIdLin1ELin1ELi0ELin1ELin1EEELi1ELin1ELb0EEEEEEC2Ev, symObjAddr: 0x3470, symBinAddr: 0x10000734C, symSize: 0x20 }
  - { offsetInCU: 0x3CBC7, offset: 0x3CBC7, size: 0x8, addend: 0x0, symName: __ZN5Eigen5BlockINS_6MatrixIdLin1ELin1ELi0ELin1ELin1EEELi1ELin1ELb0EEC1ERS2_l, symObjAddr: 0x33B4, symBinAddr: 0x100007290, symSize: 0xA8 }
  - { offsetInCU: 0x3CBCF, offset: 0x3CBCF, size: 0x8, addend: 0x0, symName: __ZNK5Eigen9EigenBaseINS_5BlockINS_6MatrixIdLin1ELin1ELi0ELin1ELin1EEELi1ELin1ELb0EEEE7derivedEv, symObjAddr: 0x345C, symBinAddr: 0x100007338, symSize: 0x14 }
  - { offsetInCU: 0x3CBD5, offset: 0x3CBD5, size: 0x8, addend: 0x0, symName: __ZN5Eigen9EigenBaseINS_6MatrixIdLin1ELin1ELi0ELin1ELin1EEEE7derivedEv, symObjAddr: 0x33A0, symBinAddr: 0x10000727C, symSize: 0x14 }
  - { offsetInCU: 0x3CBDD, offset: 0x3CBDD, size: 0x8, addend: 0x0, symName: __ZN5Eigen5BlockINS_6MatrixIdLin1ELin1ELi0ELin1ELin1EEELi1ELin1ELb0EEC1ERS2_l, symObjAddr: 0x33B4, symBinAddr: 0x100007290, symSize: 0xA8 }
  - { offsetInCU: 0x3CC05, offset: 0x3CC05, size: 0x8, addend: 0x0, symName: __ZN5Eigen12DenseStorageIdLin1ELin1ELin1ELi0EE4dataEv, symObjAddr: 0x3388, symBinAddr: 0x100007264, symSize: 0x18 }
  - { offsetInCU: 0x3CC0D, offset: 0x3CC0D, size: 0x8, addend: 0x0, symName: __ZN5Eigen9EigenBaseINS_6MatrixIdLin1ELin1ELi0ELin1ELin1EEEE7derivedEv, symObjAddr: 0x33A0, symBinAddr: 0x10000727C, symSize: 0x14 }
  - { offsetInCU: 0x3CC35, offset: 0x3CC35, size: 0x8, addend: 0x0, symName: __ZNK5Eigen12DenseStorageIdLin1ELin1ELin1ELi0EE4rowsEv, symObjAddr: 0x3370, symBinAddr: 0x10000724C, symSize: 0x18 }
  - { offsetInCU: 0x3CC3D, offset: 0x3CC3D, size: 0x8, addend: 0x0, symName: __ZN5Eigen12DenseStorageIdLin1ELin1ELin1ELi0EE4dataEv, symObjAddr: 0x3388, symBinAddr: 0x100007264, symSize: 0x18 }
  - { offsetInCU: 0x3CC65, offset: 0x3CC65, size: 0x8, addend: 0x0, symName: __ZNK5Eigen12DenseStorageIdLin1ELin1ELin1ELi0EE4colsEv, symObjAddr: 0x3358, symBinAddr: 0x100007234, symSize: 0x18 }
  - { offsetInCU: 0x3CC6D, offset: 0x3CC6D, size: 0x8, addend: 0x0, symName: __ZNK5Eigen12DenseStorageIdLin1ELin1ELin1ELi0EE4rowsEv, symObjAddr: 0x3370, symBinAddr: 0x10000724C, symSize: 0x18 }
  - { offsetInCU: 0x3CCEC, offset: 0x3CCEC, size: 0x8, addend: 0x0, symName: __ZN5Eigen8internal24conditional_aligned_freeILb1EEEvPv, symObjAddr: 0x3338, symBinAddr: 0x100007214, symSize: 0x20 }
  - { offsetInCU: 0x3CCF4, offset: 0x3CCF4, size: 0x8, addend: 0x0, symName: __ZNK5Eigen12DenseStorageIdLin1ELin1ELin1ELi0EE4colsEv, symObjAddr: 0x3358, symBinAddr: 0x100007234, symSize: 0x18 }
  - { offsetInCU: 0x3CCDB, offset: 0x3CCDB, size: 0x8, addend: 0x0, symName: __ZN5Eigen15PlainObjectBaseINS_6MatrixIdLin1ELin1ELi0ELin1ELin1EEEE6resizeEll, symObjAddr: 0x30E8, symBinAddr: 0x100006FC4, symSize: 0x250 }
  - { offsetInCU: 0x3CCE3, offset: 0x3CCE3, size: 0x8, addend: 0x0, symName: __ZN5Eigen8internal24conditional_aligned_freeILb1EEEvPv, symObjAddr: 0x3338, symBinAddr: 0x100007214, symSize: 0x20 }
  - { offsetInCU: 0x3CDE5, offset: 0x3CDE5, size: 0x8, addend: 0x0, symName: __ZN5Eigen12DenseStorageIdLin1ELin1ELin1ELi0EEC1Ev, symObjAddr: 0x30BC, symBinAddr: 0x100006F98, symSize: 0x2C }
  - { offsetInCU: 0x3CDED, offset: 0x3CDED, size: 0x8, addend: 0x0, symName: __ZN5Eigen15PlainObjectBaseINS_6MatrixIdLin1ELin1ELi0ELin1ELin1EEEE6resizeEll, symObjAddr: 0x30E8, symBinAddr: 0x100006FC4, symSize: 0x250 }
  - { offsetInCU: 0x3CE3D, offset: 0x3CE3D, size: 0x8, addend: 0x0, symName: __ZN5Eigen9DenseBaseINS_6MatrixIdLin1ELin1ELi0ELin1ELin1EEEEC2Ev, symObjAddr: 0x30A8, symBinAddr: 0x100006F84, symSize: 0x14 }
  - { offsetInCU: 0x3CE45, offset: 0x3CE45, size: 0x8, addend: 0x0, symName: __ZN5Eigen12DenseStorageIdLin1ELin1ELin1ELi0EEC1Ev, symObjAddr: 0x30BC, symBinAddr: 0x100006F98, symSize: 0x2C }
  - { offsetInCU: 0x3CF1C, offset: 0x3CF1C, size: 0x8, addend: 0x0, symName: __ZN5Eigen8internal12print_matrixINS_6MatrixIdLi4ELi4ELi0ELi4ELi4EEEEERSoS4_RKT_RKNS_8IOFormatE, symObjAddr: 0x2B54, symBinAddr: 0x100006A30, symSize: 0x554 }
  - { offsetInCU: 0x3CF24, offset: 0x3CF24, size: 0x8, addend: 0x0, symName: __ZN5Eigen9DenseBaseINS_6MatrixIdLin1ELin1ELi0ELin1ELin1EEEEC2Ev, symObjAddr: 0x30A8, symBinAddr: 0x100006F84, symSize: 0x14 }
  - { offsetInCU: 0x3D08E, offset: 0x3D08E, size: 0x8, addend: 0x0, symName: __ZNK5Eigen9DenseBaseINS_3MapINS_6MatrixIdLi4ELi4ELi0ELi4ELi4EEELi0ENS_6StrideILi0ELi0EEEEEE4evalEv, symObjAddr: 0x2B1C, symBinAddr: 0x1000069F8, symSize: 0x38 }
  - { offsetInCU: 0x3D096, offset: 0x3D096, size: 0x8, addend: 0x0, symName: __ZN5Eigen8internal12print_matrixINS_6MatrixIdLi4ELi4ELi0ELi4ELi4EEEEERSoS4_RKT_RKNS_8IOFormatE, symObjAddr: 0x2B54, symBinAddr: 0x100006A30, symSize: 0x554 }
  - { offsetInCU: 0x3D10D, offset: 0x3D10D, size: 0x8, addend: 0x0, symName: __ZN5Eigen6StrideILi0ELi0EEC1ERKS1_, symObjAddr: 0x2AC4, symBinAddr: 0x1000069A0, symSize: 0x58 }
  - { offsetInCU: 0x3D115, offset: 0x3D115, size: 0x8, addend: 0x0, symName: __ZNK5Eigen9DenseBaseINS_3MapINS_6MatrixIdLi4ELi4ELi0ELi4ELi4EEELi0ENS_6StrideILi0ELi0EEEEEE4evalEv, symObjAddr: 0x2B1C, symBinAddr: 0x1000069F8, symSize: 0x38 }
  - { offsetInCU: 0x3D1B3, offset: 0x3D1B3, size: 0x8, addend: 0x0, symName: __ZN5Eigen7MapBaseINS_3MapINS_6MatrixIdLi4ELi4ELi0ELi4ELi4EEELi0ENS_6StrideILi0ELi0EEEEELi1EEC2EPd, symObjAddr: 0x2A9C, symBinAddr: 0x100006978, symSize: 0x28 }
  - { offsetInCU: 0x3D1BB, offset: 0x3D1BB, size: 0x8, addend: 0x0, symName: __ZN5Eigen6StrideILi0ELi0EEC1ERKS1_, symObjAddr: 0x2AC4, symBinAddr: 0x1000069A0, symSize: 0x58 }
  - { offsetInCU: 0x3D18C, offset: 0x3D18C, size: 0x8, addend: 0x0, symName: __ZN5Eigen3MapINS_6MatrixIdLi4ELi4ELi0ELi4ELi4EEELi0ENS_6StrideILi0ELi0EEEE20cast_to_pointer_typeEPd, symObjAddr: 0x2A84, symBinAddr: 0x100006960, symSize: 0x18 }
  - { offsetInCU: 0x3D194, offset: 0x3D194, size: 0x8, addend: 0x0, symName: __ZN5Eigen7MapBaseINS_3MapINS_6MatrixIdLi4ELi4ELi0ELi4ELi4EEELi0ENS_6StrideILi0ELi0EEEEELi1EEC2EPd, symObjAddr: 0x2A9C, symBinAddr: 0x100006978, symSize: 0x28 }
  - { offsetInCU: 0x3D23D, offset: 0x3D23D, size: 0x8, addend: 0x0, symName: __ZN5Eigen8internal19variable_if_dynamicIlLi0EEC1El, symObjAddr: 0x2A2C, symBinAddr: 0x100006908, symSize: 0x58 }
  - { offsetInCU: 0x3D245, offset: 0x3D245, size: 0x8, addend: 0x0, symName: __ZN5Eigen3MapINS_6MatrixIdLi4ELi4ELi0ELi4ELi4EEELi0ENS_6StrideILi0ELi0EEEE20cast_to_pointer_typeEPd, symObjAddr: 0x2A84, symBinAddr: 0x100006960, symSize: 0x18 }
  - { offsetInCU: 0x3D2ED, offset: 0x3D2ED, size: 0x8, addend: 0x0, symName: __ZN5Eigen8internal12print_matrixINS_6MatrixIdLin1ELin1ELi0ELin1ELin1EEEEERSoS4_RKT_RKNS_8IOFormatE, symObjAddr: 0x24D8, symBinAddr: 0x1000063B4, symSize: 0x554 }
  - { offsetInCU: 0x3D2F5, offset: 0x3D2F5, size: 0x8, addend: 0x0, symName: __ZN5Eigen8internal19variable_if_dynamicIlLi0EEC1El, symObjAddr: 0x2A2C, symBinAddr: 0x100006908, symSize: 0x58 }
  - { offsetInCU: 0x3D41E, offset: 0x3D41E, size: 0x8, addend: 0x0, symName: __ZNK5Eigen9DenseBaseINS_6MatrixIdLin1ELin1ELi0ELin1ELin1EEEE4evalEv, symObjAddr: 0x24BC, symBinAddr: 0x100006398, symSize: 0x1C }
  - { offsetInCU: 0x3D426, offset: 0x3D426, size: 0x8, addend: 0x0, symName: __ZN5Eigen8internal12print_matrixINS_6MatrixIdLin1ELin1ELi0ELin1ELin1EEEEERSoS4_RKT_RKNS_8IOFormatE, symObjAddr: 0x24D8, symBinAddr: 0x1000063B4, symSize: 0x554 }
  - { offsetInCU: 0x3D44E, offset: 0x3D44E, size: 0x8, addend: 0x0, symName: __ZN5Eigen7MapBaseINS_5BlockINS_6MatrixIdLin1ELin1ELi0ELin1ELin1EEELin1ELi1ELb1EEELi1EE4dataEv, symObjAddr: 0x24A4, symBinAddr: 0x100006380, symSize: 0x18 }
  - { offsetInCU: 0x3D456, offset: 0x3D456, size: 0x8, addend: 0x0, symName: __ZNK5Eigen9DenseBaseINS_6MatrixIdLin1ELin1ELi0ELin1ELin1EEEE4evalEv, symObjAddr: 0x24BC, symBinAddr: 0x100006398, symSize: 0x1C }
  - { offsetInCU: 0x3D47E, offset: 0x3D47E, size: 0x8, addend: 0x0, symName: __ZN5Eigen9DenseBaseINS_6MatrixIdLin1ELin1ELi0ELin1ELin1EEEE3colEl, symObjAddr: 0x2468, symBinAddr: 0x100006344, symSize: 0x3C }
  - { offsetInCU: 0x3D486, offset: 0x3D486, size: 0x8, addend: 0x0, symName: __ZN5Eigen7MapBaseINS_5BlockINS_6MatrixIdLin1ELin1ELi0ELin1ELin1EEELin1ELi1ELb1EEELi1EE4dataEv, symObjAddr: 0x24A4, symBinAddr: 0x100006380, symSize: 0x18 }
  - { offsetInCU: 0x3D4C2, offset: 0x3D4C2, size: 0x8, addend: 0x0, symName: __ZN5Eigen9DenseBaseINS_5BlockINS_6MatrixIdLin1ELin1ELi0ELin1ELin1EEELi1ELin1ELb0EEEE4swapIS4_EEvRKNS0_IT_EE, symObjAddr: 0x2388, symBinAddr: 0x100006264, symSize: 0xE0 }
  - { offsetInCU: 0x3D4CA, offset: 0x3D4CA, size: 0x8, addend: 0x0, symName: __ZN5Eigen9DenseBaseINS_6MatrixIdLin1ELin1ELi0ELin1ELin1EEEE3colEl, symObjAddr: 0x2468, symBinAddr: 0x100006344, symSize: 0x3C }
  - { offsetInCU: 0x3D553, offset: 0x3D553, size: 0x8, addend: 0x0, symName: __ZN5Eigen15DenseCoeffsBaseINS_6MatrixIdLin1ELin1ELi0ELin1ELin1EEELi1EEclEll, symObjAddr: 0x2274, symBinAddr: 0x100006150, symSize: 0x114 }
  - { offsetInCU: 0x3D55B, offset: 0x3D55B, size: 0x8, addend: 0x0, symName: __ZN5Eigen9DenseBaseINS_5BlockINS_6MatrixIdLin1ELin1ELi0ELin1ELin1EEELi1ELin1ELb0EEEE4swapIS4_EEvRKNS0_IT_EE, symObjAddr: 0x2388, symBinAddr: 0x100006264, symSize: 0xE0 }
  - { offsetInCU: 0x3D5E1, offset: 0x3D5E1, size: 0x8, addend: 0x0, symName: __ZNK5Eigen9DenseBaseINS_12CwiseUnaryOpINS_8internal13scalar_abs_opIdEEKNS_5BlockINS_6MatrixIdLin1ELin1ELi0ELin1ELin1EEELi1ELin1ELb0EEEEEE8maxCoeffEv, symObjAddr: 0x2258, symBinAddr: 0x100006134, symSize: 0x1C }
  - { offsetInCU: 0x3D5E9, offset: 0x3D5E9, size: 0x8, addend: 0x0, symName: __ZN5Eigen15DenseCoeffsBaseINS_6MatrixIdLin1ELin1ELi0ELin1ELin1EEELi1EEclEll, symObjAddr: 0x2274, symBinAddr: 0x100006150, symSize: 0x114 }
  - { offsetInCU: 0x3D611, offset: 0x3D611, size: 0x8, addend: 0x0, symName: __ZNK5Eigen10MatrixBaseINS_5BlockINS_6MatrixIdLin1ELin1ELi0ELin1ELin1EEELi1ELin1ELb0EEEE8cwiseAbsEv, symObjAddr: 0x221C, symBinAddr: 0x1000060F8, symSize: 0x3C }
  - { offsetInCU: 0x3D619, offset: 0x3D619, size: 0x8, addend: 0x0, symName: __ZNK5Eigen9DenseBaseINS_12CwiseUnaryOpINS_8internal13scalar_abs_opIdEEKNS_5BlockINS_6MatrixIdLin1ELin1ELi0ELin1ELin1EEELi1ELin1ELb0EEEEEE8maxCoeffEv, symObjAddr: 0x2258, symBinAddr: 0x100006134, symSize: 0x1C }
  - { offsetInCU: 0x3D641, offset: 0x3D641, size: 0x8, addend: 0x0, symName: __ZN5Eigen9DenseBaseINS_6MatrixIdLin1ELin1ELi0ELin1ELin1EEEE3rowEl, symObjAddr: 0x21E0, symBinAddr: 0x1000060BC, symSize: 0x3C }
  - { offsetInCU: 0x3D649, offset: 0x3D649, size: 0x8, addend: 0x0, symName: __ZNK5Eigen10MatrixBaseINS_5BlockINS_6MatrixIdLin1ELin1ELi0ELin1ELin1EEELi1ELin1ELb0EEEE8cwiseAbsEv, symObjAddr: 0x221C, symBinAddr: 0x1000060F8, symSize: 0x3C }
  - { offsetInCU: 0x3D685, offset: 0x3D685, size: 0x8, addend: 0x0, symName: __ZN5Eigen15PlainObjectBaseINS_6MatrixIdLin1ELin1ELi0ELin1ELin1EEEE8coeffRefEll, symObjAddr: 0x218C, symBinAddr: 0x100006068, symSize: 0x54 }
  - { offsetInCU: 0x3D68D, offset: 0x3D68D, size: 0x8, addend: 0x0, symName: __ZN5Eigen9DenseBaseINS_6MatrixIdLin1ELin1ELi0ELin1ELin1EEEE3rowEl, symObjAddr: 0x21E0, symBinAddr: 0x1000060BC, symSize: 0x3C }
  - { offsetInCU: 0x3D6DB, offset: 0x3D6DB, size: 0x8, addend: 0x0, symName: __ZNK5Eigen15PlainObjectBaseINS_6MatrixIdLin1ELin1ELi0ELin1ELin1EEEE4rowsEv, symObjAddr: 0x2170, symBinAddr: 0x10000604C, symSize: 0x1C }
  - { offsetInCU: 0x3D6E3, offset: 0x3D6E3, size: 0x8, addend: 0x0, symName: __ZN5Eigen15PlainObjectBaseINS_6MatrixIdLin1ELin1ELi0ELin1ELin1EEEE8coeffRefEll, symObjAddr: 0x218C, symBinAddr: 0x100006068, symSize: 0x54 }
  - { offsetInCU: 0x3D70B, offset: 0x3D70B, size: 0x8, addend: 0x0, symName: __ZNK5Eigen15PlainObjectBaseINS_6MatrixIdLin1ELin1ELi0ELin1ELin1EEEE4colsEv, symObjAddr: 0x2154, symBinAddr: 0x100006030, symSize: 0x1C }
  - { offsetInCU: 0x3D713, offset: 0x3D713, size: 0x8, addend: 0x0, symName: __ZNK5Eigen15PlainObjectBaseINS_6MatrixIdLin1ELin1ELi0ELin1ELin1EEEE4rowsEv, symObjAddr: 0x2170, symBinAddr: 0x10000604C, symSize: 0x1C }
  - { offsetInCU: 0x3D73B, offset: 0x3D73B, size: 0x8, addend: 0x0, symName: __ZN5Eigen16CommaInitializerINS_6MatrixIdLin1ELin1ELi0ELin1ELin1EEEE8finishedEv, symObjAddr: 0x2040, symBinAddr: 0x100005F1C, symSize: 0x114 }
  - { offsetInCU: 0x3D743, offset: 0x3D743, size: 0x8, addend: 0x0, symName: __ZNK5Eigen15PlainObjectBaseINS_6MatrixIdLin1ELin1ELi0ELin1ELin1EEEE4colsEv, symObjAddr: 0x2154, symBinAddr: 0x100006030, symSize: 0x1C }
  - { offsetInCU: 0x3D858, offset: 0x3D858, size: 0x8, addend: 0x0, symName: __ZN5Eigen16CommaInitializerINS_6MatrixIdLin1ELin1ELi0ELin1ELin1EEEEC1ERS2_RKd, symObjAddr: 0x1F34, symBinAddr: 0x100005E10, symSize: 0x10C }
  - { offsetInCU: 0x3D860, offset: 0x3D860, size: 0x8, addend: 0x0, symName: __ZN5Eigen16CommaInitializerINS_6MatrixIdLin1ELin1ELi0ELin1ELin1EEEE8finishedEv, symObjAddr: 0x2040, symBinAddr: 0x100005F1C, symSize: 0x114 }
  - { offsetInCU: 0x3D8D5, offset: 0x3D8D5, size: 0x8, addend: 0x0, symName: __ZN5Eigen8internal31conditional_aligned_delete_autoIdLb1EEEvPT_m, symObjAddr: 0x1F10, symBinAddr: 0x100005DEC, symSize: 0x24 }
  - { offsetInCU: 0x3D8DD, offset: 0x3D8DD, size: 0x8, addend: 0x0, symName: __ZN5Eigen16CommaInitializerINS_6MatrixIdLin1ELin1ELi0ELin1ELin1EEEEC1ERS2_RKd, symObjAddr: 0x1F34, symBinAddr: 0x100005E10, symSize: 0x10C }
  - { offsetInCU: 0x3D8E7, offset: 0x3D8E7, size: 0x8, addend: 0x0, symName: __ZN5Eigen15PlainObjectBaseINS_6MatrixIdLin1ELin1ELi0ELin1ELin1EEEE6_init2IllEEvllPNSt9enable_ifILb1ET_E4typeE, symObjAddr: 0x1EDC, symBinAddr: 0x100005DB8, symSize: 0x34 }
  - { offsetInCU: 0x3D8EF, offset: 0x3D8EF, size: 0x8, addend: 0x0, symName: __ZN5Eigen8internal31conditional_aligned_delete_autoIdLb1EEEvPT_m, symObjAddr: 0x1F10, symBinAddr: 0x100005DEC, symSize: 0x24 }
  - { offsetInCU: 0x3D9C7, offset: 0x3D9C7, size: 0x8, addend: 0x0, symName: __ZN5Eigen15PlainObjectBaseINS_6MatrixIdLin1ELin1ELi0ELin1ELin1EEEEC2Ev, symObjAddr: 0x1EB4, symBinAddr: 0x100005D90, symSize: 0x28 }
  - { offsetInCU: 0x3D9CF, offset: 0x3D9CF, size: 0x8, addend: 0x0, symName: __ZN5Eigen15PlainObjectBaseINS_6MatrixIdLin1ELin1ELi0ELin1ELin1EEEE6_init2IllEEvllPNSt9enable_ifILb1ET_E4typeE, symObjAddr: 0x1EDC, symBinAddr: 0x100005DB8, symSize: 0x34 }
  - { offsetInCU: 0x3DA0C, offset: 0x3DA0C, size: 0x8, addend: 0x0, symName: __ZN5Eigen10MatrixBaseINS_6MatrixIdLin1ELin1ELi0ELin1ELin1EEEEC2Ev, symObjAddr: 0x1E94, symBinAddr: 0x100005D70, symSize: 0x20 }
  - { offsetInCU: 0x3DA14, offset: 0x3DA14, size: 0x8, addend: 0x0, symName: __ZN5Eigen15PlainObjectBaseINS_6MatrixIdLin1ELin1ELi0ELin1ELin1EEEEC2Ev, symObjAddr: 0x1EB4, symBinAddr: 0x100005D90, symSize: 0x28 }
  - { offsetInCU: 0x3D9F9, offset: 0x3D9F9, size: 0x8, addend: 0x0, symName: __ZNSt7__cxx1112basic_stringIcSt11char_traitsIcESaIcEE12_M_constructIPKcEEvT_S8_St20forward_iterator_tag, symObjAddr: 0x1DAC, symBinAddr: 0x100005C88, symSize: 0xE8 }
  - { offsetInCU: 0x3DA01, offset: 0x3DA01, size: 0x8, addend: 0x0, symName: __ZN5Eigen10MatrixBaseINS_6MatrixIdLin1ELin1ELi0ELin1ELin1EEEEC2Ev, symObjAddr: 0x1E94, symBinAddr: 0x100005D70, symSize: 0x20 }
  - { offsetInCU: 0x3DBB7, offset: 0x3DBB7, size: 0x8, addend: 0x0, symName: __ZZNSt7__cxx1112basic_stringIcSt11char_traitsIcESaIcEE12_M_constructIPKcEEvT_S8_St20forward_iterator_tagEN6_GuardC1EPS4_, symObjAddr: 0x1D54, symBinAddr: 0x100005C30, symSize: 0x24 }
  - { offsetInCU: 0x3DBBF, offset: 0x3DBBF, size: 0x8, addend: 0x0, symName: __ZZNSt7__cxx1112basic_stringIcSt11char_traitsIcESaIcEE12_M_constructIPKcEEvT_S8_St20forward_iterator_tagEN6_GuardD1Ev, symObjAddr: 0x1D78, symBinAddr: 0x100005C54, symSize: 0x34 }
  - { offsetInCU: 0x3DBF0, offset: 0x3DBF0, size: 0x8, addend: 0x0, symName: __ZZNSt7__cxx1112basic_stringIcSt11char_traitsIcESaIcEE12_M_constructIPKcEEvT_S8_St20forward_iterator_tagEN6_GuardD1Ev, symObjAddr: 0x1D78, symBinAddr: 0x100005C54, symSize: 0x34 }
  - { offsetInCU: 0x3DBF8, offset: 0x3DBF8, size: 0x8, addend: 0x0, symName: __ZNSt7__cxx1112basic_stringIcSt11char_traitsIcESaIcEE12_M_constructIPKcEEvT_S8_St20forward_iterator_tag, symObjAddr: 0x1DAC, symBinAddr: 0x100005C88, symSize: 0xE8 }
  - { offsetInCU: 0x3DCBF, offset: 0x3DCBF, size: 0x8, addend: 0x0, symName: __ZNSt15__new_allocatorIcED2Ev, symObjAddr: 0x1D40, symBinAddr: 0x100005C1C, symSize: 0x14 }
  - { offsetInCU: 0x3DCC7, offset: 0x3DCC7, size: 0x8, addend: 0x0, symName: __ZZNSt7__cxx1112basic_stringIcSt11char_traitsIcESaIcEE12_M_constructIPKcEEvT_S8_St20forward_iterator_tagEN6_GuardC1EPS4_, symObjAddr: 0x1D54, symBinAddr: 0x100005C30, symSize: 0x24 }
  - { offsetInCU: 0x3DCEB, offset: 0x3DCEB, size: 0x8, addend: 0x0, symName: __ZN9__gnu_cxx11char_traitsIcE2eqERKcS3_, symObjAddr: 0x1D10, symBinAddr: 0x100005BEC, symSize: 0x30 }
  - { offsetInCU: 0x3DCF3, offset: 0x3DCF3, size: 0x8, addend: 0x0, symName: __ZNSt15__new_allocatorIcED2Ev, symObjAddr: 0x1D40, symBinAddr: 0x100005C1C, symSize: 0x14 }
  - { offsetInCU: 0x3DDD8, offset: 0x3DDD8, size: 0x8, addend: 0x0, symName: __ZN5EigenlsINS_3MapINS_6MatrixIdLi4ELi4ELi0ELi4ELi4EEELi0ENS_6StrideILi0ELi0EEEEEEERSoS7_RKNS_9DenseBaseIT_EE, symObjAddr: 0x1A18, symBinAddr: 0x1000058F4, symSize: 0x2F8 }
  - { offsetInCU: 0x3DDE0, offset: 0x3DDE0, size: 0x8, addend: 0x0, symName: __ZN9__gnu_cxx11char_traitsIcE2eqERKcS3_, symObjAddr: 0x1D10, symBinAddr: 0x100005BEC, symSize: 0x30 }
  - { offsetInCU: 0x3E18C, offset: 0x3E18C, size: 0x8, addend: 0x0, symName: __ZN5Eigen3MapINS_6MatrixIdLi4ELi4ELi0ELi4ELi4EEELi0ENS_6StrideILi0ELi0EEEEC1EPdRKS4_, symObjAddr: 0x19C4, symBinAddr: 0x1000058A0, symSize: 0x54 }
  - { offsetInCU: 0x3E194, offset: 0x3E194, size: 0x8, addend: 0x0, symName: __ZN5EigenlsINS_3MapINS_6MatrixIdLi4ELi4ELi0ELi4ELi4EEELi0ENS_6StrideILi0ELi0EEEEEEERSoS7_RKNS_9DenseBaseIT_EE, symObjAddr: 0x1A18, symBinAddr: 0x1000058F4, symSize: 0x2F8 }
  - { offsetInCU: 0x3E1C7, offset: 0x3E1C7, size: 0x8, addend: 0x0, symName: __ZN5Eigen6StrideILi0ELi0EEC1Ev, symObjAddr: 0x1990, symBinAddr: 0x10000586C, symSize: 0x34 }
  - { offsetInCU: 0x3E1CF, offset: 0x3E1CF, size: 0x8, addend: 0x0, symName: __ZN5Eigen3MapINS_6MatrixIdLi4ELi4ELi0ELi4ELi4EEELi0ENS_6StrideILi0ELi0EEEEC1EPdRKS4_, symObjAddr: 0x19C4, symBinAddr: 0x1000058A0, symSize: 0x54 }
  - { offsetInCU: 0x3E267, offset: 0x3E267, size: 0x8, addend: 0x0, symName: __Z7backsubIN5Eigen6MatrixIdLin1ELin1ELi0ELin1ELin1EEEEvRNS0_10MatrixBaseIT_EEiPiPd, symObjAddr: 0x1758, symBinAddr: 0x100005634, symSize: 0x238 }
  - { offsetInCU: 0x3E26F, offset: 0x3E26F, size: 0x8, addend: 0x0, symName: __ZN5Eigen6StrideILi0ELi0EEC1Ev, symObjAddr: 0x1990, symBinAddr: 0x10000586C, symSize: 0x34 }
  - { offsetInCU: 0x3E361, offset: 0x3E361, size: 0x8, addend: 0x0, symName: __ZN5EigenlsINS_6MatrixIdLin1ELin1ELi0ELin1ELin1EEEEERSoS3_RKNS_9DenseBaseIT_EE, symObjAddr: 0x1468, symBinAddr: 0x100005344, symSize: 0x2F0 }
  - { offsetInCU: 0x3E369, offset: 0x3E369, size: 0x8, addend: 0x0, symName: __Z7backsubIN5Eigen6MatrixIdLin1ELin1ELi0ELin1ELin1EEEEvRNS0_10MatrixBaseIT_EEiPiPd, symObjAddr: 0x1758, symBinAddr: 0x100005634, symSize: 0x238 }
  - { offsetInCU: 0x3E6F1, offset: 0x3E6F1, size: 0x8, addend: 0x0, symName: __ZN5Eigen8IOFormatD1Ev, symObjAddr: 0x1400, symBinAddr: 0x1000052DC, symSize: 0x68 }
  - { offsetInCU: 0x3E6F9, offset: 0x3E6F9, size: 0x8, addend: 0x0, symName: __ZN5EigenlsINS_6MatrixIdLin1ELin1ELi0ELin1ELin1EEEEERSoS3_RKNS_9DenseBaseIT_EE, symObjAddr: 0x1468, symBinAddr: 0x100005344, symSize: 0x2F0 }
  - { offsetInCU: 0x3E709, offset: 0x3E709, size: 0x8, addend: 0x0, symName: __ZN5Eigen16CommaInitializerINS_6MatrixIdLin1ELin1ELi0ELin1ELin1EEEEcmERKd, symObjAddr: 0xD40, symBinAddr: 0x100004C1C, symSize: 0x1D4 }
  - { offsetInCU: 0x3E711, offset: 0x3E711, size: 0x8, addend: 0x0, symName: __Z8MCludcmpIN5Eigen6MatrixIdLin1ELin1ELi0ELin1ELin1EEEEvRNS0_10MatrixBaseIT_EElPi, symObjAddr: 0xF14, symBinAddr: 0x100004DF0, symSize: 0x4EC }
  - { offsetInCU: 0x3E7F4, offset: 0x3E7F4, size: 0x8, addend: 0x0, symName: __ZN5Eigen16CommaInitializerINS_6MatrixIdLin1ELin1ELi0ELin1ELin1EEEED1Ev, symObjAddr: 0xD20, symBinAddr: 0x100004BFC, symSize: 0x20 }
  - { offsetInCU: 0x3E7FC, offset: 0x3E7FC, size: 0x8, addend: 0x0, symName: __ZN5Eigen16CommaInitializerINS_6MatrixIdLin1ELin1ELi0ELin1ELin1EEEEcmERKd, symObjAddr: 0xD40, symBinAddr: 0x100004C1C, symSize: 0x1D4 }
  - { offsetInCU: 0x3E7DB, offset: 0x3E7DB, size: 0x8, addend: 0x0, symName: __ZN5Eigen9DenseBaseINS_6MatrixIdLin1ELin1ELi0ELin1ELin1EEEElsERKd, symObjAddr: 0xCE8, symBinAddr: 0x100004BC4, symSize: 0x38 }
  - { offsetInCU: 0x3E7E3, offset: 0x3E7E3, size: 0x8, addend: 0x0, symName: __ZN5Eigen16CommaInitializerINS_6MatrixIdLin1ELin1ELi0ELin1ELin1EEEED1Ev, symObjAddr: 0xD20, symBinAddr: 0x100004BFC, symSize: 0x20 }
  - { offsetInCU: 0x3E87A, offset: 0x3E87A, size: 0x8, addend: 0x0, symName: __ZN5Eigen12DenseStorageIdLin1ELin1ELin1ELi0EED1Ev, symObjAddr: 0xCA8, symBinAddr: 0x100004B84, symSize: 0x40 }
  - { offsetInCU: 0x3E882, offset: 0x3E882, size: 0x8, addend: 0x0, symName: __ZN5Eigen9DenseBaseINS_6MatrixIdLin1ELin1ELi0ELin1ELin1EEEElsERKd, symObjAddr: 0xCE8, symBinAddr: 0x100004BC4, symSize: 0x38 }
  - { offsetInCU: 0x3E90A, offset: 0x3E90A, size: 0x8, addend: 0x0, symName: __ZN5Eigen6MatrixIdLin1ELin1ELi0ELin1ELin1EEC1IllEERKT_RKT0_, symObjAddr: 0xC40, symBinAddr: 0x100004B1C, symSize: 0x68 }
  - { offsetInCU: 0x3E912, offset: 0x3E912, size: 0x8, addend: 0x0, symName: __ZN5Eigen12DenseStorageIdLin1ELin1ELin1ELi0EED1Ev, symObjAddr: 0xCA8, symBinAddr: 0x100004B84, symSize: 0x40 }
  - { offsetInCU: 0x3E9C7, offset: 0x3E9C7, size: 0x8, addend: 0x0, symName: __ZNSt7__cxx1112basic_stringIcSt11char_traitsIcESaIcEEC1IS3_EEPKcRKS3_, symObjAddr: 0xBA4, symBinAddr: 0x100004A80, symSize: 0x9C }
  - { offsetInCU: 0x3E9CF, offset: 0x3E9CF, size: 0x8, addend: 0x0, symName: __ZN5Eigen6MatrixIdLin1ELin1ELi0ELin1ELin1EEC1IllEERKT_RKT0_, symObjAddr: 0xC40, symBinAddr: 0x100004B1C, symSize: 0x68 }
  - { offsetInCU: 0x3EA7A, offset: 0x3EA7A, size: 0x8, addend: 0x0, symName: __ZNSt7__cxx1112basic_stringIcSt11char_traitsIcESaIcEE12_Alloc_hiderD1Ev, symObjAddr: 0xB78, symBinAddr: 0x100004A54, symSize: 0x2C }
  - { offsetInCU: 0x3EA82, offset: 0x3EA82, size: 0x8, addend: 0x0, symName: __ZNSt7__cxx1112basic_stringIcSt11char_traitsIcESaIcEEC1IS3_EEPKcRKS3_, symObjAddr: 0xBA4, symBinAddr: 0x100004A80, symSize: 0x9C }
  - { offsetInCU: 0x3EB31, offset: 0x3EB31, size: 0x8, addend: 0x0, symName: __ZN9__gnu_cxx6__stoaIlicJiEEET0_PFT_PKT1_PPS3_DpT2_EPKcS5_PmS9_, symObjAddr: 0xA70, symBinAddr: 0x10000494C, symSize: 0x108 }
  - { offsetInCU: 0x3EB39, offset: 0x3EB39, size: 0x8, addend: 0x0, symName: __ZNSt7__cxx1112basic_stringIcSt11char_traitsIcESaIcEE12_Alloc_hiderD1Ev, symObjAddr: 0xB78, symBinAddr: 0x100004A54, symSize: 0x2C }
  - { offsetInCU: 0x3ECB5, offset: 0x3ECB5, size: 0x8, addend: 0x0, symName: __ZZN9__gnu_cxx6__stoaIlicJiEEET0_PFT_PKT1_PPS3_DpT2_EPKcS5_PmS9_EN11_Save_errnoC1Ev, symObjAddr: 0x9B0, symBinAddr: 0x10000488C, symSize: 0x30 }
  - { offsetInCU: 0x3ECBD, offset: 0x3ECBD, size: 0x8, addend: 0x0, symName: __ZZN9__gnu_cxx6__stoaIlicJiEEET0_PFT_PKT1_PPS3_DpT2_EPKcS5_PmS9_EN11_Save_errnoD1Ev, symObjAddr: 0x9E0, symBinAddr: 0x1000048BC, symSize: 0x50 }
  - { offsetInCU: 0x3ECE5, offset: 0x3ECE5, size: 0x8, addend: 0x0, symName: __ZZN9__gnu_cxx6__stoaIlicJiEEET0_PFT_PKT1_PPS3_DpT2_EPKcS5_PmS9_EN11_Save_errnoD1Ev, symObjAddr: 0x9E0, symBinAddr: 0x1000048BC, symSize: 0x50 }
  - { offsetInCU: 0x3ECED, offset: 0x3ECED, size: 0x8, addend: 0x0, symName: __ZZN9__gnu_cxx6__stoaIlicJiEEET0_PFT_PKT1_PPS3_DpT2_EPKcS5_PmS9_EN10_Range_chk6_S_chkElSt17integral_constantIbLb1EE, symObjAddr: 0xA30, symBinAddr: 0x10000490C, symSize: 0x40 }
  - { offsetInCU: 0x3ED85, offset: 0x3ED85, size: 0x8, addend: 0x0, symName: __ZZN9__gnu_cxx6__stoaIlicJiEEET0_PFT_PKT1_PPS3_DpT2_EPKcS5_PmS9_EN10_Range_chk6_S_chkElSt17integral_constantIbLb1EE, symObjAddr: 0xA30, symBinAddr: 0x10000490C, symSize: 0x40 }
  - { offsetInCU: 0x3ED8D, offset: 0x3ED8D, size: 0x8, addend: 0x0, symName: __ZN9__gnu_cxx6__stoaIlicJiEEET0_PFT_PKT1_PPS3_DpT2_EPKcS5_PmS9_, symObjAddr: 0xA70, symBinAddr: 0x10000494C, symSize: 0x108 }
  - { offsetInCU: 0x3ED9C, offset: 0x3ED9C, size: 0x8, addend: 0x0, symName: __ZN9__gnu_cxx11char_traitsIcE6lengthEPKc, symObjAddr: 0x954, symBinAddr: 0x100004830, symSize: 0x5C }
  - { offsetInCU: 0x3EDA4, offset: 0x3EDA4, size: 0x8, addend: 0x0, symName: __ZZN9__gnu_cxx6__stoaIlicJiEEET0_PFT_PKT1_PPS3_DpT2_EPKcS5_PmS9_EN11_Save_errnoC1Ev, symObjAddr: 0x9B0, symBinAddr: 0x10000488C, symSize: 0x30 }
  - { offsetInCU: 0x3EDEA, offset: 0x3EDEA, size: 0x8, addend: 0x0, symName: _main, symObjAddr: 0x5C0, symBinAddr: 0x10000449C, symSize: 0x394 }
  - { offsetInCU: 0x3EDF2, offset: 0x3EDF2, size: 0x8, addend: 0x0, symName: __ZN9__gnu_cxx11char_traitsIcE6lengthEPKc, symObjAddr: 0x954, symBinAddr: 0x100004830, symSize: 0x5C }
  - { offsetInCU: 0x3EFCC, offset: 0x3EFCC, size: 0x8, addend: 0x0, symName: __ZN5Eigen6MatrixIdLin1ELin1ELi0ELin1ELin1EED1Ev, symObjAddr: 0x5A0, symBinAddr: 0x10000447C, symSize: 0x20 }
  - { offsetInCU: 0x3EFD4, offset: 0x3EFD4, size: 0x8, addend: 0x0, symName: _main, symObjAddr: 0x5C0, symBinAddr: 0x10000449C, symSize: 0x394 }
  - { offsetInCU: 0x3F03F, offset: 0x3F03F, size: 0x8, addend: 0x0, symName: __ZN5Eigen15PlainObjectBaseINS_6MatrixIdLin1ELin1ELi0ELin1ELin1EEEED2Ev, symObjAddr: 0x580, symBinAddr: 0x10000445C, symSize: 0x20 }
  - { offsetInCU: 0x3F047, offset: 0x3F047, size: 0x8, addend: 0x0, symName: __ZN5Eigen6MatrixIdLin1ELin1ELi0ELin1ELin1EED1Ev, symObjAddr: 0x5A0, symBinAddr: 0x10000447C, symSize: 0x20 }
  - { offsetInCU: 0x3F14C, offset: 0x3F14C, size: 0x8, addend: 0x0, symName: __ZN5Eigen8IOFormatC1EiiRKNSt7__cxx1112basic_stringIcSt11char_traitsIcESaIcEEES8_S8_S8_S8_S8_c, symObjAddr: 0x364, symBinAddr: 0x100004240, symSize: 0x21C }
  - { offsetInCU: 0x3F154, offset: 0x3F154, size: 0x8, addend: 0x0, symName: __ZN5Eigen15PlainObjectBaseINS_6MatrixIdLin1ELin1ELi0ELin1ELin1EEEED2Ev, symObjAddr: 0x580, symBinAddr: 0x10000445C, symSize: 0x20 }
  - { offsetInCU: 0x3F2B5, offset: 0x3F2B5, size: 0x8, addend: 0x0, symName: __ZN5Eigen8internal6pstoreId13__Float64x2_tEEvPT_RKT0_, symObjAddr: 0x328, symBinAddr: 0x100004204, symSize: 0x3C }
  - { offsetInCU: 0x3F2BD, offset: 0x3F2BD, size: 0x8, addend: 0x0, symName: __ZN5Eigen8IOFormatC1EiiRKNSt7__cxx1112basic_stringIcSt11char_traitsIcESaIcEEES8_S8_S8_S8_S8_c, symObjAddr: 0x364, symBinAddr: 0x100004240, symSize: 0x21C }
  - { offsetInCU: 0x3F363, offset: 0x3F363, size: 0x8, addend: 0x0, symName: __ZN5Eigen8internal6ploaduI13__Float64x2_tEET_PKNS0_15unpacket_traitsIS3_E4typeE, symObjAddr: 0x304, symBinAddr: 0x1000041E0, symSize: 0x24 }
  - { offsetInCU: 0x3F36B, offset: 0x3F36B, size: 0x8, addend: 0x0, symName: __ZN5Eigen8internal6pstoreId13__Float64x2_tEEvPT_RKT0_, symObjAddr: 0x328, symBinAddr: 0x100004204, symSize: 0x3C }
  - { offsetInCU: 0x3F398, offset: 0x3F398, size: 0x8, addend: 0x0, symName: __ZN5Eigen8internal12aligned_freeEPv, symObjAddr: 0x2D4, symBinAddr: 0x1000041B0, symSize: 0x30 }
  - { offsetInCU: 0x3F3A0, offset: 0x3F3A0, size: 0x8, addend: 0x0, symName: __ZN5Eigen8internal6ploaduI13__Float64x2_tEET_PKNS0_15unpacket_traitsIS3_E4typeE, symObjAddr: 0x304, symBinAddr: 0x1000041E0, symSize: 0x24 }
  - { offsetInCU: 0x3F3D3, offset: 0x3F3D3, size: 0x8, addend: 0x0, symName: __ZN5Eigen8internal14aligned_mallocEm, symObjAddr: 0x208, symBinAddr: 0x1000040E4, symSize: 0xCC }
  - { offsetInCU: 0x3F3DB, offset: 0x3F3DB, size: 0x8, addend: 0x0, symName: __ZN5Eigen8internal12aligned_freeEPv, symObjAddr: 0x2D4, symBinAddr: 0x1000041B0, symSize: 0x30 }
  - { offsetInCU: 0x3F460, offset: 0x3F460, size: 0x8, addend: 0x0, symName: __ZN5Eigen8internal19throw_std_bad_allocEv, symObjAddr: 0x1D0, symBinAddr: 0x1000040AC, symSize: 0x38 }
  - { offsetInCU: 0x3F468, offset: 0x3F468, size: 0x8, addend: 0x0, symName: __ZN5Eigen8internal14aligned_mallocEm, symObjAddr: 0x208, symBinAddr: 0x1000040E4, symSize: 0xCC }
  - { offsetInCU: 0x3F494, offset: 0x3F494, size: 0x8, addend: 0x0, symName: __ZN5Eigen8internal28check_that_malloc_is_allowedEv, symObjAddr: 0x1C8, symBinAddr: 0x1000040A4, symSize: 0x8 }
  - { offsetInCU: 0x3F49C, offset: 0x3F49C, size: 0x8, addend: 0x0, symName: __ZN5Eigen8internal19throw_std_bad_allocEv, symObjAddr: 0x1D0, symBinAddr: 0x1000040AC, symSize: 0x38 }
  - { offsetInCU: 0x3F4AC, offset: 0x3F4AC, size: 0x8, addend: 0x0, symName: __ZN5Eigen8internal21is_constant_evaluatedEv, symObjAddr: 0x1C0, symBinAddr: 0x10000409C, symSize: 0x8 }
  - { offsetInCU: 0x3F4B4, offset: 0x3F4B4, size: 0x8, addend: 0x0, symName: __ZN5Eigen8internal28check_that_malloc_is_allowedEv, symObjAddr: 0x1C8, symBinAddr: 0x1000040A4, symSize: 0x8 }
  - { offsetInCU: 0x3F4CE, offset: 0x3F4CE, size: 0x8, addend: 0x0, symName: __ZN5Eigen8internal17check_implicationEbb, symObjAddr: 0x178, symBinAddr: 0x100004054, symSize: 0x48 }
  - { offsetInCU: 0x3F4D6, offset: 0x3F4D6, size: 0x8, addend: 0x0, symName: __ZN5Eigen8internal21is_constant_evaluatedEv, symObjAddr: 0x1C0, symBinAddr: 0x10000409C, symSize: 0x8 }
  - { offsetInCU: 0x3F4F5, offset: 0x3F4F5, size: 0x8, addend: 0x0, symName: __ZNSt8ios_base5widthEl, symObjAddr: 0x148, symBinAddr: 0x100004024, symSize: 0x30 }
  - { offsetInCU: 0x3F4FD, offset: 0x3F4FD, size: 0x8, addend: 0x0, symName: __ZN5Eigen8internal17check_implicationEbb, symObjAddr: 0x178, symBinAddr: 0x100004054, symSize: 0x48 }
  - { offsetInCU: 0x3F560, offset: 0x3F560, size: 0x8, addend: 0x0, symName: __ZNKSt8ios_base5widthEv, symObjAddr: 0x130, symBinAddr: 0x10000400C, symSize: 0x18 }
  - { offsetInCU: 0x3F568, offset: 0x3F568, size: 0x8, addend: 0x0, symName: __ZNSt8ios_base5widthEl, symObjAddr: 0x148, symBinAddr: 0x100004024, symSize: 0x30 }
  - { offsetInCU: 0x3F590, offset: 0x3F590, size: 0x8, addend: 0x0, symName: __ZNSt8ios_base9precisionEl, symObjAddr: 0x100, symBinAddr: 0x100003FDC, symSize: 0x30 }
  - { offsetInCU: 0x3F598, offset: 0x3F598, size: 0x8, addend: 0x0, symName: __ZNKSt8ios_base5widthEv, symObjAddr: 0x130, symBinAddr: 0x10000400C, symSize: 0x18 }
  - { offsetInCU: 0x3F637, offset: 0x3F637, size: 0x8, addend: 0x0, symName: __ZNSt7__cxx114stoiERKNS_12basic_stringIcSt11char_traitsIcESaIcEEEPmi, symObjAddr: 0xBC, symBinAddr: 0x100003F98, symSize: 0x44 }
  - { offsetInCU: 0x3F63F, offset: 0x3F63F, size: 0x8, addend: 0x0, symName: __ZNSt8ios_base9precisionEl, symObjAddr: 0x100, symBinAddr: 0x100003FDC, symSize: 0x30 }
  - { offsetInCU: 0x3F650, offset: 0x3F650, size: 0x8, addend: 0x0, symName: __ZNSt11char_traitsIcE6lengthEPKc, symObjAddr: 0x7C, symBinAddr: 0x100003F58, symSize: 0x40 }
  - { offsetInCU: 0x3F658, offset: 0x3F658, size: 0x8, addend: 0x0, symName: __ZNSt7__cxx114stoiERKNS_12basic_stringIcSt11char_traitsIcESaIcEEEPmi, symObjAddr: 0xBC, symBinAddr: 0x100003F98, symSize: 0x44 }
  - { offsetInCU: 0x3F6B1, offset: 0x3F6B1, size: 0x8, addend: 0x0, symName: __ZNSt9bad_allocC1Ev, symObjAddr: 0x48, symBinAddr: 0x100003F24, symSize: 0x34 }
  - { offsetInCU: 0x3F6B9, offset: 0x3F6B9, size: 0x8, addend: 0x0, symName: __ZNSt11char_traitsIcE6lengthEPKc, symObjAddr: 0x7C, symBinAddr: 0x100003F58, symSize: 0x40 }
  - { offsetInCU: 0x3F6FB, offset: 0x3F6FB, size: 0x8, addend: 0x0, symName: __ZNSt9exceptionC2Ev, symObjAddr: 0x20, symBinAddr: 0x100003EFC, symSize: 0x28 }
  - { offsetInCU: 0x3F703, offset: 0x3F703, size: 0x8, addend: 0x0, symName: __ZNSt9bad_allocC1Ev, symObjAddr: 0x48, symBinAddr: 0x100003F24, symSize: 0x34 }
  - { offsetInCU: 0x3F7FB, offset: 0x3F7FB, size: 0x8, addend: 0x0, symName: __ZSt23__is_constant_evaluatedv, symObjAddr: 0x0, symBinAddr: 0x100003EDC, symSize: 0x8 }
  - { offsetInCU: 0x3F803, offset: 0x3F803, size: 0x8, addend: 0x0, symName: __ZSt3absd, symObjAddr: 0x8, symBinAddr: 0x100003EE4, symSize: 0x18 }
...
